ARM GAS  C:\Users\Nathan\AppData\Local\Temp\ccuhR5Xd.s 			page 1


   1              		.cpu cortex-m4
   2              		.arch armv7e-m
   3              		.fpu fpv4-sp-d16
   4              		.eabi_attribute 27, 1
   5              		.eabi_attribute 28, 1
   6              		.eabi_attribute 20, 1
   7              		.eabi_attribute 21, 1
   8              		.eabi_attribute 23, 3
   9              		.eabi_attribute 24, 1
  10              		.eabi_attribute 25, 1
  11              		.eabi_attribute 26, 1
  12              		.eabi_attribute 30, 1
  13              		.eabi_attribute 34, 1
  14              		.eabi_attribute 18, 4
  15              		.file	"stm32wbxx_ll_usb.c"
  16              		.text
  17              	.Ltext0:
  18              		.cfi_sections	.debug_frame
  19              		.file 1 "Drivers/STM32WBxx_HAL_Driver/Src/stm32wbxx_ll_usb.c"
  20              		.section	.text.USB_CoreInit,"ax",%progbits
  21              		.align	1
  22              		.global	USB_CoreInit
  23              		.syntax unified
  24              		.thumb
  25              		.thumb_func
  27              	USB_CoreInit:
  28              	.LVL0:
  29              	.LFB950:
   1:Drivers/STM32WBxx_HAL_Driver/Src/stm32wbxx_ll_usb.c **** /**
   2:Drivers/STM32WBxx_HAL_Driver/Src/stm32wbxx_ll_usb.c ****   ******************************************************************************
   3:Drivers/STM32WBxx_HAL_Driver/Src/stm32wbxx_ll_usb.c ****   * @file    stm32wbxx_ll_usb.c
   4:Drivers/STM32WBxx_HAL_Driver/Src/stm32wbxx_ll_usb.c ****   * @author  MCD Application Team
   5:Drivers/STM32WBxx_HAL_Driver/Src/stm32wbxx_ll_usb.c ****   * @brief   USB Low Layer HAL module driver.
   6:Drivers/STM32WBxx_HAL_Driver/Src/stm32wbxx_ll_usb.c ****   *
   7:Drivers/STM32WBxx_HAL_Driver/Src/stm32wbxx_ll_usb.c ****   *          This file provides firmware functions to manage the following
   8:Drivers/STM32WBxx_HAL_Driver/Src/stm32wbxx_ll_usb.c ****   *          functionalities of the USB Peripheral Controller:
   9:Drivers/STM32WBxx_HAL_Driver/Src/stm32wbxx_ll_usb.c ****   *           + Initialization/de-initialization functions
  10:Drivers/STM32WBxx_HAL_Driver/Src/stm32wbxx_ll_usb.c ****   *           + I/O operation functions
  11:Drivers/STM32WBxx_HAL_Driver/Src/stm32wbxx_ll_usb.c ****   *           + Peripheral Control functions
  12:Drivers/STM32WBxx_HAL_Driver/Src/stm32wbxx_ll_usb.c ****   *           + Peripheral State functions
  13:Drivers/STM32WBxx_HAL_Driver/Src/stm32wbxx_ll_usb.c ****   *
  14:Drivers/STM32WBxx_HAL_Driver/Src/stm32wbxx_ll_usb.c ****   ******************************************************************************
  15:Drivers/STM32WBxx_HAL_Driver/Src/stm32wbxx_ll_usb.c ****   * @attention
  16:Drivers/STM32WBxx_HAL_Driver/Src/stm32wbxx_ll_usb.c ****   *
  17:Drivers/STM32WBxx_HAL_Driver/Src/stm32wbxx_ll_usb.c ****   * Copyright (c) 2019 STMicroelectronics.
  18:Drivers/STM32WBxx_HAL_Driver/Src/stm32wbxx_ll_usb.c ****   * All rights reserved.
  19:Drivers/STM32WBxx_HAL_Driver/Src/stm32wbxx_ll_usb.c ****   *
  20:Drivers/STM32WBxx_HAL_Driver/Src/stm32wbxx_ll_usb.c ****   * This software is licensed under terms that can be found in the LICENSE file
  21:Drivers/STM32WBxx_HAL_Driver/Src/stm32wbxx_ll_usb.c ****   * in the root directory of this software component.
  22:Drivers/STM32WBxx_HAL_Driver/Src/stm32wbxx_ll_usb.c ****   * If no LICENSE file comes with this software, it is provided AS-IS.
  23:Drivers/STM32WBxx_HAL_Driver/Src/stm32wbxx_ll_usb.c ****   *
  24:Drivers/STM32WBxx_HAL_Driver/Src/stm32wbxx_ll_usb.c ****   ******************************************************************************
  25:Drivers/STM32WBxx_HAL_Driver/Src/stm32wbxx_ll_usb.c ****   @verbatim
  26:Drivers/STM32WBxx_HAL_Driver/Src/stm32wbxx_ll_usb.c ****   ==============================================================================
  27:Drivers/STM32WBxx_HAL_Driver/Src/stm32wbxx_ll_usb.c ****                     ##### How to use this driver #####
  28:Drivers/STM32WBxx_HAL_Driver/Src/stm32wbxx_ll_usb.c ****   ==============================================================================
  29:Drivers/STM32WBxx_HAL_Driver/Src/stm32wbxx_ll_usb.c ****     [..]
ARM GAS  C:\Users\Nathan\AppData\Local\Temp\ccuhR5Xd.s 			page 2


  30:Drivers/STM32WBxx_HAL_Driver/Src/stm32wbxx_ll_usb.c ****       (#) Fill parameters of Init structure in USB_CfgTypeDef structure.
  31:Drivers/STM32WBxx_HAL_Driver/Src/stm32wbxx_ll_usb.c **** 
  32:Drivers/STM32WBxx_HAL_Driver/Src/stm32wbxx_ll_usb.c ****       (#) Call USB_CoreInit() API to initialize the USB Core peripheral.
  33:Drivers/STM32WBxx_HAL_Driver/Src/stm32wbxx_ll_usb.c **** 
  34:Drivers/STM32WBxx_HAL_Driver/Src/stm32wbxx_ll_usb.c ****       (#) The upper HAL HCD/PCD driver will call the right routines for its internal processes.
  35:Drivers/STM32WBxx_HAL_Driver/Src/stm32wbxx_ll_usb.c **** 
  36:Drivers/STM32WBxx_HAL_Driver/Src/stm32wbxx_ll_usb.c ****       (#)NOTE: For applications not using double buffer mode, define the symbol
  37:Drivers/STM32WBxx_HAL_Driver/Src/stm32wbxx_ll_usb.c ****                 'USE_USB_DOUBLE_BUFFER' as 0 to reduce the driver's memory footprint.
  38:Drivers/STM32WBxx_HAL_Driver/Src/stm32wbxx_ll_usb.c **** 
  39:Drivers/STM32WBxx_HAL_Driver/Src/stm32wbxx_ll_usb.c ****   @endverbatim
  40:Drivers/STM32WBxx_HAL_Driver/Src/stm32wbxx_ll_usb.c **** 
  41:Drivers/STM32WBxx_HAL_Driver/Src/stm32wbxx_ll_usb.c ****   ******************************************************************************
  42:Drivers/STM32WBxx_HAL_Driver/Src/stm32wbxx_ll_usb.c ****   */
  43:Drivers/STM32WBxx_HAL_Driver/Src/stm32wbxx_ll_usb.c **** 
  44:Drivers/STM32WBxx_HAL_Driver/Src/stm32wbxx_ll_usb.c **** /* Includes ------------------------------------------------------------------*/
  45:Drivers/STM32WBxx_HAL_Driver/Src/stm32wbxx_ll_usb.c **** #include "stm32wbxx_hal.h"
  46:Drivers/STM32WBxx_HAL_Driver/Src/stm32wbxx_ll_usb.c **** 
  47:Drivers/STM32WBxx_HAL_Driver/Src/stm32wbxx_ll_usb.c **** /** @addtogroup STM32WBxx_LL_USB_DRIVER
  48:Drivers/STM32WBxx_HAL_Driver/Src/stm32wbxx_ll_usb.c ****   * @{
  49:Drivers/STM32WBxx_HAL_Driver/Src/stm32wbxx_ll_usb.c ****   */
  50:Drivers/STM32WBxx_HAL_Driver/Src/stm32wbxx_ll_usb.c **** 
  51:Drivers/STM32WBxx_HAL_Driver/Src/stm32wbxx_ll_usb.c **** #if defined (HAL_PCD_MODULE_ENABLED) || defined (HAL_HCD_MODULE_ENABLED)
  52:Drivers/STM32WBxx_HAL_Driver/Src/stm32wbxx_ll_usb.c **** #if defined (USB)
  53:Drivers/STM32WBxx_HAL_Driver/Src/stm32wbxx_ll_usb.c **** /* Private typedef -----------------------------------------------------------*/
  54:Drivers/STM32WBxx_HAL_Driver/Src/stm32wbxx_ll_usb.c **** /* Private define ------------------------------------------------------------*/
  55:Drivers/STM32WBxx_HAL_Driver/Src/stm32wbxx_ll_usb.c **** /* Private macro -------------------------------------------------------------*/
  56:Drivers/STM32WBxx_HAL_Driver/Src/stm32wbxx_ll_usb.c **** /* Private variables ---------------------------------------------------------*/
  57:Drivers/STM32WBxx_HAL_Driver/Src/stm32wbxx_ll_usb.c **** /* Private function prototypes -----------------------------------------------*/
  58:Drivers/STM32WBxx_HAL_Driver/Src/stm32wbxx_ll_usb.c **** /* Private functions ---------------------------------------------------------*/
  59:Drivers/STM32WBxx_HAL_Driver/Src/stm32wbxx_ll_usb.c **** 
  60:Drivers/STM32WBxx_HAL_Driver/Src/stm32wbxx_ll_usb.c **** /**
  61:Drivers/STM32WBxx_HAL_Driver/Src/stm32wbxx_ll_usb.c ****   * @brief  Initializes the USB Core
  62:Drivers/STM32WBxx_HAL_Driver/Src/stm32wbxx_ll_usb.c ****   * @param  USBx USB Instance
  63:Drivers/STM32WBxx_HAL_Driver/Src/stm32wbxx_ll_usb.c ****   * @param  cfg pointer to a USB_CfgTypeDef structure that contains
  64:Drivers/STM32WBxx_HAL_Driver/Src/stm32wbxx_ll_usb.c ****   *         the configuration information for the specified USBx peripheral.
  65:Drivers/STM32WBxx_HAL_Driver/Src/stm32wbxx_ll_usb.c ****   * @retval HAL status
  66:Drivers/STM32WBxx_HAL_Driver/Src/stm32wbxx_ll_usb.c ****   */
  67:Drivers/STM32WBxx_HAL_Driver/Src/stm32wbxx_ll_usb.c **** HAL_StatusTypeDef USB_CoreInit(USB_TypeDef const *USBx, USB_CfgTypeDef cfg)
  68:Drivers/STM32WBxx_HAL_Driver/Src/stm32wbxx_ll_usb.c **** {
  30              		.loc 1 68 1 view -0
  31              		.cfi_startproc
  32              		@ args = 0, pretend = 0, frame = 8
  33              		@ frame_needed = 0, uses_anonymous_args = 0
  34              		@ link register save eliminated.
  35              		.loc 1 68 1 is_stmt 0 view .LVU1
  36 0000 82B0     		sub	sp, sp, #8
  37              		.cfi_def_cfa_offset 8
  38 0002 02AB     		add	r3, sp, #8
  39 0004 03E90600 		stmdb	r3, {r1, r2}
  69:Drivers/STM32WBxx_HAL_Driver/Src/stm32wbxx_ll_usb.c ****   /* Prevent unused argument(s) compilation warning */
  70:Drivers/STM32WBxx_HAL_Driver/Src/stm32wbxx_ll_usb.c ****   UNUSED(USBx);
  40              		.loc 1 70 3 is_stmt 1 view .LVU2
  71:Drivers/STM32WBxx_HAL_Driver/Src/stm32wbxx_ll_usb.c ****   UNUSED(cfg);
  41              		.loc 1 71 3 view .LVU3
  72:Drivers/STM32WBxx_HAL_Driver/Src/stm32wbxx_ll_usb.c **** 
  73:Drivers/STM32WBxx_HAL_Driver/Src/stm32wbxx_ll_usb.c ****   /* NOTE : - This function is not required by USB Device FS peripheral, it is used
  74:Drivers/STM32WBxx_HAL_Driver/Src/stm32wbxx_ll_usb.c ****               only by USB OTG FS peripheral.
ARM GAS  C:\Users\Nathan\AppData\Local\Temp\ccuhR5Xd.s 			page 3


  75:Drivers/STM32WBxx_HAL_Driver/Src/stm32wbxx_ll_usb.c ****             - This function is added to ensure compatibility across platforms.
  76:Drivers/STM32WBxx_HAL_Driver/Src/stm32wbxx_ll_usb.c ****    */
  77:Drivers/STM32WBxx_HAL_Driver/Src/stm32wbxx_ll_usb.c **** 
  78:Drivers/STM32WBxx_HAL_Driver/Src/stm32wbxx_ll_usb.c ****   return HAL_OK;
  42              		.loc 1 78 3 view .LVU4
  79:Drivers/STM32WBxx_HAL_Driver/Src/stm32wbxx_ll_usb.c **** }
  43              		.loc 1 79 1 is_stmt 0 view .LVU5
  44 0008 0020     		movs	r0, #0
  45              	.LVL1:
  46              		.loc 1 79 1 view .LVU6
  47 000a 02B0     		add	sp, sp, #8
  48              		.cfi_def_cfa_offset 0
  49              		@ sp needed
  50 000c 7047     		bx	lr
  51              		.cfi_endproc
  52              	.LFE950:
  54              		.section	.text.USB_EnableGlobalInt,"ax",%progbits
  55              		.align	1
  56              		.global	USB_EnableGlobalInt
  57              		.syntax unified
  58              		.thumb
  59              		.thumb_func
  61              	USB_EnableGlobalInt:
  62              	.LVL2:
  63              	.LFB951:
  80:Drivers/STM32WBxx_HAL_Driver/Src/stm32wbxx_ll_usb.c **** 
  81:Drivers/STM32WBxx_HAL_Driver/Src/stm32wbxx_ll_usb.c **** /**
  82:Drivers/STM32WBxx_HAL_Driver/Src/stm32wbxx_ll_usb.c ****   * @brief  USB_EnableGlobalInt
  83:Drivers/STM32WBxx_HAL_Driver/Src/stm32wbxx_ll_usb.c ****   *         Enables the controller's Global Int in the AHB Config reg
  84:Drivers/STM32WBxx_HAL_Driver/Src/stm32wbxx_ll_usb.c ****   * @param  USBx Selected device
  85:Drivers/STM32WBxx_HAL_Driver/Src/stm32wbxx_ll_usb.c ****   * @retval HAL status
  86:Drivers/STM32WBxx_HAL_Driver/Src/stm32wbxx_ll_usb.c ****   */
  87:Drivers/STM32WBxx_HAL_Driver/Src/stm32wbxx_ll_usb.c **** HAL_StatusTypeDef USB_EnableGlobalInt(USB_TypeDef *USBx)
  88:Drivers/STM32WBxx_HAL_Driver/Src/stm32wbxx_ll_usb.c **** {
  64              		.loc 1 88 1 is_stmt 1 view -0
  65              		.cfi_startproc
  66              		@ args = 0, pretend = 0, frame = 0
  67              		@ frame_needed = 0, uses_anonymous_args = 0
  68              		@ link register save eliminated.
  69              		.loc 1 88 1 is_stmt 0 view .LVU8
  70 0000 0346     		mov	r3, r0
  89:Drivers/STM32WBxx_HAL_Driver/Src/stm32wbxx_ll_usb.c ****   uint32_t winterruptmask;
  71              		.loc 1 89 3 is_stmt 1 view .LVU9
  90:Drivers/STM32WBxx_HAL_Driver/Src/stm32wbxx_ll_usb.c **** 
  91:Drivers/STM32WBxx_HAL_Driver/Src/stm32wbxx_ll_usb.c ****   /* Clear pending interrupts */
  92:Drivers/STM32WBxx_HAL_Driver/Src/stm32wbxx_ll_usb.c ****   USBx->ISTR = 0U;
  72              		.loc 1 92 3 view .LVU10
  73              		.loc 1 92 14 is_stmt 0 view .LVU11
  74 0002 0020     		movs	r0, #0
  75              	.LVL3:
  76              		.loc 1 92 14 view .LVU12
  77 0004 A3F84400 		strh	r0, [r3, #68]	@ movhi
  93:Drivers/STM32WBxx_HAL_Driver/Src/stm32wbxx_ll_usb.c **** 
  94:Drivers/STM32WBxx_HAL_Driver/Src/stm32wbxx_ll_usb.c ****   /* Set winterruptmask variable */
  95:Drivers/STM32WBxx_HAL_Driver/Src/stm32wbxx_ll_usb.c ****   winterruptmask = USB_CNTR_CTRM  | USB_CNTR_WKUPM |
  78              		.loc 1 95 3 is_stmt 1 view .LVU13
  79              	.LVL4:
ARM GAS  C:\Users\Nathan\AppData\Local\Temp\ccuhR5Xd.s 			page 4


  96:Drivers/STM32WBxx_HAL_Driver/Src/stm32wbxx_ll_usb.c ****                    USB_CNTR_SUSPM | USB_CNTR_ERRM |
  97:Drivers/STM32WBxx_HAL_Driver/Src/stm32wbxx_ll_usb.c ****                    USB_CNTR_SOFM | USB_CNTR_ESOFM |
  98:Drivers/STM32WBxx_HAL_Driver/Src/stm32wbxx_ll_usb.c ****                    USB_CNTR_RESETM | USB_CNTR_L1REQM;
  99:Drivers/STM32WBxx_HAL_Driver/Src/stm32wbxx_ll_usb.c **** 
 100:Drivers/STM32WBxx_HAL_Driver/Src/stm32wbxx_ll_usb.c ****   /* Set interrupt mask */
 101:Drivers/STM32WBxx_HAL_Driver/Src/stm32wbxx_ll_usb.c ****   USBx->CNTR = (uint16_t)winterruptmask;
  80              		.loc 1 101 3 view .LVU14
  81              		.loc 1 101 14 is_stmt 0 view .LVU15
  82 0008 4BF68072 		movw	r2, #49024
  83 000c A3F84020 		strh	r2, [r3, #64]	@ movhi
 102:Drivers/STM32WBxx_HAL_Driver/Src/stm32wbxx_ll_usb.c **** 
 103:Drivers/STM32WBxx_HAL_Driver/Src/stm32wbxx_ll_usb.c ****   return HAL_OK;
  84              		.loc 1 103 3 is_stmt 1 view .LVU16
 104:Drivers/STM32WBxx_HAL_Driver/Src/stm32wbxx_ll_usb.c **** }
  85              		.loc 1 104 1 is_stmt 0 view .LVU17
  86 0010 7047     		bx	lr
  87              		.cfi_endproc
  88              	.LFE951:
  90              		.section	.text.USB_DisableGlobalInt,"ax",%progbits
  91              		.align	1
  92              		.global	USB_DisableGlobalInt
  93              		.syntax unified
  94              		.thumb
  95              		.thumb_func
  97              	USB_DisableGlobalInt:
  98              	.LVL5:
  99              	.LFB952:
 105:Drivers/STM32WBxx_HAL_Driver/Src/stm32wbxx_ll_usb.c **** 
 106:Drivers/STM32WBxx_HAL_Driver/Src/stm32wbxx_ll_usb.c **** /**
 107:Drivers/STM32WBxx_HAL_Driver/Src/stm32wbxx_ll_usb.c ****   * @brief  USB_DisableGlobalInt
 108:Drivers/STM32WBxx_HAL_Driver/Src/stm32wbxx_ll_usb.c ****   *         Disable the controller's Global Int in the AHB Config reg
 109:Drivers/STM32WBxx_HAL_Driver/Src/stm32wbxx_ll_usb.c ****   * @param  USBx Selected device
 110:Drivers/STM32WBxx_HAL_Driver/Src/stm32wbxx_ll_usb.c ****   * @retval HAL status
 111:Drivers/STM32WBxx_HAL_Driver/Src/stm32wbxx_ll_usb.c ****   */
 112:Drivers/STM32WBxx_HAL_Driver/Src/stm32wbxx_ll_usb.c **** HAL_StatusTypeDef USB_DisableGlobalInt(USB_TypeDef *USBx)
 113:Drivers/STM32WBxx_HAL_Driver/Src/stm32wbxx_ll_usb.c **** {
 100              		.loc 1 113 1 is_stmt 1 view -0
 101              		.cfi_startproc
 102              		@ args = 0, pretend = 0, frame = 0
 103              		@ frame_needed = 0, uses_anonymous_args = 0
 104              		@ link register save eliminated.
 114:Drivers/STM32WBxx_HAL_Driver/Src/stm32wbxx_ll_usb.c ****   uint32_t winterruptmask;
 105              		.loc 1 114 3 view .LVU19
 115:Drivers/STM32WBxx_HAL_Driver/Src/stm32wbxx_ll_usb.c **** 
 116:Drivers/STM32WBxx_HAL_Driver/Src/stm32wbxx_ll_usb.c ****   /* Set winterruptmask variable */
 117:Drivers/STM32WBxx_HAL_Driver/Src/stm32wbxx_ll_usb.c ****   winterruptmask = USB_CNTR_CTRM  | USB_CNTR_WKUPM |
 106              		.loc 1 117 3 view .LVU20
 118:Drivers/STM32WBxx_HAL_Driver/Src/stm32wbxx_ll_usb.c ****                    USB_CNTR_SUSPM | USB_CNTR_ERRM |
 119:Drivers/STM32WBxx_HAL_Driver/Src/stm32wbxx_ll_usb.c ****                    USB_CNTR_SOFM | USB_CNTR_ESOFM |
 120:Drivers/STM32WBxx_HAL_Driver/Src/stm32wbxx_ll_usb.c ****                    USB_CNTR_RESETM | USB_CNTR_L1REQM;
 121:Drivers/STM32WBxx_HAL_Driver/Src/stm32wbxx_ll_usb.c **** 
 122:Drivers/STM32WBxx_HAL_Driver/Src/stm32wbxx_ll_usb.c ****   /* Clear interrupt mask */
 123:Drivers/STM32WBxx_HAL_Driver/Src/stm32wbxx_ll_usb.c ****   USBx->CNTR &= (uint16_t)(~winterruptmask);
 107              		.loc 1 123 3 view .LVU21
 108              		.loc 1 123 7 is_stmt 0 view .LVU22
 109 0000 B0F84030 		ldrh	r3, [r0, #64]
 110 0004 9BB2     		uxth	r3, r3
ARM GAS  C:\Users\Nathan\AppData\Local\Temp\ccuhR5Xd.s 			page 5


 111              		.loc 1 123 14 view .LVU23
 112 0006 23F47E53 		bic	r3, r3, #16256
 113 000a 5B04     		lsls	r3, r3, #17
 114 000c 5B0C     		lsrs	r3, r3, #17
 115 000e A0F84030 		strh	r3, [r0, #64]	@ movhi
 124:Drivers/STM32WBxx_HAL_Driver/Src/stm32wbxx_ll_usb.c **** 
 125:Drivers/STM32WBxx_HAL_Driver/Src/stm32wbxx_ll_usb.c ****   return HAL_OK;
 116              		.loc 1 125 3 is_stmt 1 view .LVU24
 126:Drivers/STM32WBxx_HAL_Driver/Src/stm32wbxx_ll_usb.c **** }
 117              		.loc 1 126 1 is_stmt 0 view .LVU25
 118 0012 0020     		movs	r0, #0
 119              	.LVL6:
 120              		.loc 1 126 1 view .LVU26
 121 0014 7047     		bx	lr
 122              		.cfi_endproc
 123              	.LFE952:
 125              		.section	.text.USB_SetCurrentMode,"ax",%progbits
 126              		.align	1
 127              		.global	USB_SetCurrentMode
 128              		.syntax unified
 129              		.thumb
 130              		.thumb_func
 132              	USB_SetCurrentMode:
 133              	.LVL7:
 134              	.LFB953:
 127:Drivers/STM32WBxx_HAL_Driver/Src/stm32wbxx_ll_usb.c **** 
 128:Drivers/STM32WBxx_HAL_Driver/Src/stm32wbxx_ll_usb.c **** /**
 129:Drivers/STM32WBxx_HAL_Driver/Src/stm32wbxx_ll_usb.c ****   * @brief  USB_SetCurrentMode Set functional mode
 130:Drivers/STM32WBxx_HAL_Driver/Src/stm32wbxx_ll_usb.c ****   * @param  USBx Selected device
 131:Drivers/STM32WBxx_HAL_Driver/Src/stm32wbxx_ll_usb.c ****   * @param  mode current core mode
 132:Drivers/STM32WBxx_HAL_Driver/Src/stm32wbxx_ll_usb.c ****   *          This parameter can be one of the these values:
 133:Drivers/STM32WBxx_HAL_Driver/Src/stm32wbxx_ll_usb.c ****   *            @arg USB_DEVICE_MODE Peripheral mode
 134:Drivers/STM32WBxx_HAL_Driver/Src/stm32wbxx_ll_usb.c ****   * @retval HAL status
 135:Drivers/STM32WBxx_HAL_Driver/Src/stm32wbxx_ll_usb.c ****   */
 136:Drivers/STM32WBxx_HAL_Driver/Src/stm32wbxx_ll_usb.c **** HAL_StatusTypeDef USB_SetCurrentMode(USB_TypeDef const *USBx, USB_ModeTypeDef mode)
 137:Drivers/STM32WBxx_HAL_Driver/Src/stm32wbxx_ll_usb.c **** {
 135              		.loc 1 137 1 is_stmt 1 view -0
 136              		.cfi_startproc
 137              		@ args = 0, pretend = 0, frame = 0
 138              		@ frame_needed = 0, uses_anonymous_args = 0
 139              		@ link register save eliminated.
 138:Drivers/STM32WBxx_HAL_Driver/Src/stm32wbxx_ll_usb.c ****   /* Prevent unused argument(s) compilation warning */
 139:Drivers/STM32WBxx_HAL_Driver/Src/stm32wbxx_ll_usb.c ****   UNUSED(USBx);
 140              		.loc 1 139 3 view .LVU28
 140:Drivers/STM32WBxx_HAL_Driver/Src/stm32wbxx_ll_usb.c ****   UNUSED(mode);
 141              		.loc 1 140 3 view .LVU29
 141:Drivers/STM32WBxx_HAL_Driver/Src/stm32wbxx_ll_usb.c **** 
 142:Drivers/STM32WBxx_HAL_Driver/Src/stm32wbxx_ll_usb.c ****   /* NOTE : - This function is not required by USB Device FS peripheral, it is used
 143:Drivers/STM32WBxx_HAL_Driver/Src/stm32wbxx_ll_usb.c ****               only by USB OTG FS peripheral.
 144:Drivers/STM32WBxx_HAL_Driver/Src/stm32wbxx_ll_usb.c ****             - This function is added to ensure compatibility across platforms.
 145:Drivers/STM32WBxx_HAL_Driver/Src/stm32wbxx_ll_usb.c ****    */
 146:Drivers/STM32WBxx_HAL_Driver/Src/stm32wbxx_ll_usb.c ****   return HAL_OK;
 142              		.loc 1 146 3 view .LVU30
 147:Drivers/STM32WBxx_HAL_Driver/Src/stm32wbxx_ll_usb.c **** }
 143              		.loc 1 147 1 is_stmt 0 view .LVU31
 144 0000 0020     		movs	r0, #0
 145              	.LVL8:
ARM GAS  C:\Users\Nathan\AppData\Local\Temp\ccuhR5Xd.s 			page 6


 146              		.loc 1 147 1 view .LVU32
 147 0002 7047     		bx	lr
 148              		.cfi_endproc
 149              	.LFE953:
 151              		.section	.text.USB_DevInit,"ax",%progbits
 152              		.align	1
 153              		.global	USB_DevInit
 154              		.syntax unified
 155              		.thumb
 156              		.thumb_func
 158              	USB_DevInit:
 159              	.LVL9:
 160              	.LFB954:
 148:Drivers/STM32WBxx_HAL_Driver/Src/stm32wbxx_ll_usb.c **** 
 149:Drivers/STM32WBxx_HAL_Driver/Src/stm32wbxx_ll_usb.c **** /**
 150:Drivers/STM32WBxx_HAL_Driver/Src/stm32wbxx_ll_usb.c ****   * @brief  USB_DevInit Initializes the USB controller registers
 151:Drivers/STM32WBxx_HAL_Driver/Src/stm32wbxx_ll_usb.c ****   *         for device mode
 152:Drivers/STM32WBxx_HAL_Driver/Src/stm32wbxx_ll_usb.c ****   * @param  USBx Selected device
 153:Drivers/STM32WBxx_HAL_Driver/Src/stm32wbxx_ll_usb.c ****   * @param  cfg  pointer to a USB_CfgTypeDef structure that contains
 154:Drivers/STM32WBxx_HAL_Driver/Src/stm32wbxx_ll_usb.c ****   *         the configuration information for the specified USBx peripheral.
 155:Drivers/STM32WBxx_HAL_Driver/Src/stm32wbxx_ll_usb.c ****   * @retval HAL status
 156:Drivers/STM32WBxx_HAL_Driver/Src/stm32wbxx_ll_usb.c ****   */
 157:Drivers/STM32WBxx_HAL_Driver/Src/stm32wbxx_ll_usb.c **** HAL_StatusTypeDef USB_DevInit(USB_TypeDef *USBx, USB_CfgTypeDef cfg)
 158:Drivers/STM32WBxx_HAL_Driver/Src/stm32wbxx_ll_usb.c **** {
 161              		.loc 1 158 1 is_stmt 1 view -0
 162              		.cfi_startproc
 163              		@ args = 0, pretend = 0, frame = 8
 164              		@ frame_needed = 0, uses_anonymous_args = 0
 165              		@ link register save eliminated.
 166              		.loc 1 158 1 is_stmt 0 view .LVU34
 167 0000 82B0     		sub	sp, sp, #8
 168              		.cfi_def_cfa_offset 8
 169 0002 0346     		mov	r3, r0
 170 0004 02A8     		add	r0, sp, #8
 171              	.LVL10:
 172              		.loc 1 158 1 view .LVU35
 173 0006 00E90600 		stmdb	r0, {r1, r2}
 159:Drivers/STM32WBxx_HAL_Driver/Src/stm32wbxx_ll_usb.c ****   /* Prevent unused argument(s) compilation warning */
 160:Drivers/STM32WBxx_HAL_Driver/Src/stm32wbxx_ll_usb.c ****   UNUSED(cfg);
 174              		.loc 1 160 3 is_stmt 1 view .LVU36
 161:Drivers/STM32WBxx_HAL_Driver/Src/stm32wbxx_ll_usb.c **** 
 162:Drivers/STM32WBxx_HAL_Driver/Src/stm32wbxx_ll_usb.c ****   /* Init Device */
 163:Drivers/STM32WBxx_HAL_Driver/Src/stm32wbxx_ll_usb.c ****   /* CNTR_FRES = 1 */
 164:Drivers/STM32WBxx_HAL_Driver/Src/stm32wbxx_ll_usb.c ****   USBx->CNTR = (uint16_t)USB_CNTR_FRES;
 175              		.loc 1 164 3 view .LVU37
 176              		.loc 1 164 14 is_stmt 0 view .LVU38
 177 000a 0122     		movs	r2, #1
 178 000c A3F84020 		strh	r2, [r3, #64]	@ movhi
 165:Drivers/STM32WBxx_HAL_Driver/Src/stm32wbxx_ll_usb.c **** 
 166:Drivers/STM32WBxx_HAL_Driver/Src/stm32wbxx_ll_usb.c ****   /* CNTR_FRES = 0 */
 167:Drivers/STM32WBxx_HAL_Driver/Src/stm32wbxx_ll_usb.c ****   USBx->CNTR = 0U;
 179              		.loc 1 167 3 is_stmt 1 view .LVU39
 180              		.loc 1 167 14 is_stmt 0 view .LVU40
 181 0010 0020     		movs	r0, #0
 182 0012 A3F84000 		strh	r0, [r3, #64]	@ movhi
 168:Drivers/STM32WBxx_HAL_Driver/Src/stm32wbxx_ll_usb.c **** 
 169:Drivers/STM32WBxx_HAL_Driver/Src/stm32wbxx_ll_usb.c ****   /* Clear pending interrupts */
ARM GAS  C:\Users\Nathan\AppData\Local\Temp\ccuhR5Xd.s 			page 7


 170:Drivers/STM32WBxx_HAL_Driver/Src/stm32wbxx_ll_usb.c ****   USBx->ISTR = 0U;
 183              		.loc 1 170 3 is_stmt 1 view .LVU41
 184              		.loc 1 170 14 is_stmt 0 view .LVU42
 185 0016 A3F84400 		strh	r0, [r3, #68]	@ movhi
 171:Drivers/STM32WBxx_HAL_Driver/Src/stm32wbxx_ll_usb.c **** 
 172:Drivers/STM32WBxx_HAL_Driver/Src/stm32wbxx_ll_usb.c ****   /*Set Btable Address*/
 173:Drivers/STM32WBxx_HAL_Driver/Src/stm32wbxx_ll_usb.c ****   USBx->BTABLE = BTABLE_ADDRESS;
 186              		.loc 1 173 3 is_stmt 1 view .LVU43
 187              		.loc 1 173 16 is_stmt 0 view .LVU44
 188 001a A3F85000 		strh	r0, [r3, #80]	@ movhi
 174:Drivers/STM32WBxx_HAL_Driver/Src/stm32wbxx_ll_usb.c **** 
 175:Drivers/STM32WBxx_HAL_Driver/Src/stm32wbxx_ll_usb.c ****   return HAL_OK;
 189              		.loc 1 175 3 is_stmt 1 view .LVU45
 176:Drivers/STM32WBxx_HAL_Driver/Src/stm32wbxx_ll_usb.c **** }
 190              		.loc 1 176 1 is_stmt 0 view .LVU46
 191 001e 02B0     		add	sp, sp, #8
 192              		.cfi_def_cfa_offset 0
 193              		@ sp needed
 194 0020 7047     		bx	lr
 195              		.cfi_endproc
 196              	.LFE954:
 198              		.section	.text.USB_FlushTxFifo,"ax",%progbits
 199              		.align	1
 200              		.global	USB_FlushTxFifo
 201              		.syntax unified
 202              		.thumb
 203              		.thumb_func
 205              	USB_FlushTxFifo:
 206              	.LVL11:
 207              	.LFB955:
 177:Drivers/STM32WBxx_HAL_Driver/Src/stm32wbxx_ll_usb.c **** 
 178:Drivers/STM32WBxx_HAL_Driver/Src/stm32wbxx_ll_usb.c **** /**
 179:Drivers/STM32WBxx_HAL_Driver/Src/stm32wbxx_ll_usb.c ****   * @brief  USB_FlushTxFifo : Flush a Tx FIFO
 180:Drivers/STM32WBxx_HAL_Driver/Src/stm32wbxx_ll_usb.c ****   * @param  USBx : Selected device
 181:Drivers/STM32WBxx_HAL_Driver/Src/stm32wbxx_ll_usb.c ****   * @param  num : FIFO number
 182:Drivers/STM32WBxx_HAL_Driver/Src/stm32wbxx_ll_usb.c ****   *         This parameter can be a value from 1 to 15
 183:Drivers/STM32WBxx_HAL_Driver/Src/stm32wbxx_ll_usb.c ****             15 means Flush all Tx FIFOs
 184:Drivers/STM32WBxx_HAL_Driver/Src/stm32wbxx_ll_usb.c ****   * @retval HAL status
 185:Drivers/STM32WBxx_HAL_Driver/Src/stm32wbxx_ll_usb.c ****   */
 186:Drivers/STM32WBxx_HAL_Driver/Src/stm32wbxx_ll_usb.c **** HAL_StatusTypeDef USB_FlushTxFifo(USB_TypeDef const *USBx, uint32_t num)
 187:Drivers/STM32WBxx_HAL_Driver/Src/stm32wbxx_ll_usb.c **** {
 208              		.loc 1 187 1 is_stmt 1 view -0
 209              		.cfi_startproc
 210              		@ args = 0, pretend = 0, frame = 0
 211              		@ frame_needed = 0, uses_anonymous_args = 0
 212              		@ link register save eliminated.
 188:Drivers/STM32WBxx_HAL_Driver/Src/stm32wbxx_ll_usb.c ****   /* Prevent unused argument(s) compilation warning */
 189:Drivers/STM32WBxx_HAL_Driver/Src/stm32wbxx_ll_usb.c ****   UNUSED(USBx);
 213              		.loc 1 189 3 view .LVU48
 190:Drivers/STM32WBxx_HAL_Driver/Src/stm32wbxx_ll_usb.c ****   UNUSED(num);
 214              		.loc 1 190 3 view .LVU49
 191:Drivers/STM32WBxx_HAL_Driver/Src/stm32wbxx_ll_usb.c **** 
 192:Drivers/STM32WBxx_HAL_Driver/Src/stm32wbxx_ll_usb.c ****   /* NOTE : - This function is not required by USB Device FS peripheral, it is used
 193:Drivers/STM32WBxx_HAL_Driver/Src/stm32wbxx_ll_usb.c ****               only by USB OTG FS peripheral.
 194:Drivers/STM32WBxx_HAL_Driver/Src/stm32wbxx_ll_usb.c ****             - This function is added to ensure compatibility across platforms.
 195:Drivers/STM32WBxx_HAL_Driver/Src/stm32wbxx_ll_usb.c ****    */
 196:Drivers/STM32WBxx_HAL_Driver/Src/stm32wbxx_ll_usb.c **** 
ARM GAS  C:\Users\Nathan\AppData\Local\Temp\ccuhR5Xd.s 			page 8


 197:Drivers/STM32WBxx_HAL_Driver/Src/stm32wbxx_ll_usb.c ****   return HAL_OK;
 215              		.loc 1 197 3 view .LVU50
 198:Drivers/STM32WBxx_HAL_Driver/Src/stm32wbxx_ll_usb.c **** }
 216              		.loc 1 198 1 is_stmt 0 view .LVU51
 217 0000 0020     		movs	r0, #0
 218              	.LVL12:
 219              		.loc 1 198 1 view .LVU52
 220 0002 7047     		bx	lr
 221              		.cfi_endproc
 222              	.LFE955:
 224              		.section	.text.USB_FlushRxFifo,"ax",%progbits
 225              		.align	1
 226              		.global	USB_FlushRxFifo
 227              		.syntax unified
 228              		.thumb
 229              		.thumb_func
 231              	USB_FlushRxFifo:
 232              	.LVL13:
 233              	.LFB956:
 199:Drivers/STM32WBxx_HAL_Driver/Src/stm32wbxx_ll_usb.c **** 
 200:Drivers/STM32WBxx_HAL_Driver/Src/stm32wbxx_ll_usb.c **** /**
 201:Drivers/STM32WBxx_HAL_Driver/Src/stm32wbxx_ll_usb.c ****   * @brief  USB_FlushRxFifo : Flush Rx FIFO
 202:Drivers/STM32WBxx_HAL_Driver/Src/stm32wbxx_ll_usb.c ****   * @param  USBx : Selected device
 203:Drivers/STM32WBxx_HAL_Driver/Src/stm32wbxx_ll_usb.c ****   * @retval HAL status
 204:Drivers/STM32WBxx_HAL_Driver/Src/stm32wbxx_ll_usb.c ****   */
 205:Drivers/STM32WBxx_HAL_Driver/Src/stm32wbxx_ll_usb.c **** HAL_StatusTypeDef USB_FlushRxFifo(USB_TypeDef const *USBx)
 206:Drivers/STM32WBxx_HAL_Driver/Src/stm32wbxx_ll_usb.c **** {
 234              		.loc 1 206 1 is_stmt 1 view -0
 235              		.cfi_startproc
 236              		@ args = 0, pretend = 0, frame = 0
 237              		@ frame_needed = 0, uses_anonymous_args = 0
 238              		@ link register save eliminated.
 207:Drivers/STM32WBxx_HAL_Driver/Src/stm32wbxx_ll_usb.c ****   /* Prevent unused argument(s) compilation warning */
 208:Drivers/STM32WBxx_HAL_Driver/Src/stm32wbxx_ll_usb.c ****   UNUSED(USBx);
 239              		.loc 1 208 3 view .LVU54
 209:Drivers/STM32WBxx_HAL_Driver/Src/stm32wbxx_ll_usb.c **** 
 210:Drivers/STM32WBxx_HAL_Driver/Src/stm32wbxx_ll_usb.c ****   /* NOTE : - This function is not required by USB Device FS peripheral, it is used
 211:Drivers/STM32WBxx_HAL_Driver/Src/stm32wbxx_ll_usb.c ****               only by USB OTG FS peripheral.
 212:Drivers/STM32WBxx_HAL_Driver/Src/stm32wbxx_ll_usb.c ****             - This function is added to ensure compatibility across platforms.
 213:Drivers/STM32WBxx_HAL_Driver/Src/stm32wbxx_ll_usb.c ****    */
 214:Drivers/STM32WBxx_HAL_Driver/Src/stm32wbxx_ll_usb.c **** 
 215:Drivers/STM32WBxx_HAL_Driver/Src/stm32wbxx_ll_usb.c ****   return HAL_OK;
 240              		.loc 1 215 3 view .LVU55
 216:Drivers/STM32WBxx_HAL_Driver/Src/stm32wbxx_ll_usb.c **** }
 241              		.loc 1 216 1 is_stmt 0 view .LVU56
 242 0000 0020     		movs	r0, #0
 243              	.LVL14:
 244              		.loc 1 216 1 view .LVU57
 245 0002 7047     		bx	lr
 246              		.cfi_endproc
 247              	.LFE956:
 249              		.section	.text.USB_ActivateEndpoint,"ax",%progbits
 250              		.align	1
 251              		.global	USB_ActivateEndpoint
 252              		.syntax unified
 253              		.thumb
 254              		.thumb_func
ARM GAS  C:\Users\Nathan\AppData\Local\Temp\ccuhR5Xd.s 			page 9


 256              	USB_ActivateEndpoint:
 257              	.LVL15:
 258              	.LFB957:
 217:Drivers/STM32WBxx_HAL_Driver/Src/stm32wbxx_ll_usb.c **** 
 218:Drivers/STM32WBxx_HAL_Driver/Src/stm32wbxx_ll_usb.c **** 
 219:Drivers/STM32WBxx_HAL_Driver/Src/stm32wbxx_ll_usb.c **** #if defined (HAL_PCD_MODULE_ENABLED)
 220:Drivers/STM32WBxx_HAL_Driver/Src/stm32wbxx_ll_usb.c **** /**
 221:Drivers/STM32WBxx_HAL_Driver/Src/stm32wbxx_ll_usb.c ****   * @brief  Activate and configure an endpoint
 222:Drivers/STM32WBxx_HAL_Driver/Src/stm32wbxx_ll_usb.c ****   * @param  USBx Selected device
 223:Drivers/STM32WBxx_HAL_Driver/Src/stm32wbxx_ll_usb.c ****   * @param  ep pointer to endpoint structure
 224:Drivers/STM32WBxx_HAL_Driver/Src/stm32wbxx_ll_usb.c ****   * @retval HAL status
 225:Drivers/STM32WBxx_HAL_Driver/Src/stm32wbxx_ll_usb.c ****   */
 226:Drivers/STM32WBxx_HAL_Driver/Src/stm32wbxx_ll_usb.c **** HAL_StatusTypeDef USB_ActivateEndpoint(USB_TypeDef *USBx, USB_EPTypeDef *ep)
 227:Drivers/STM32WBxx_HAL_Driver/Src/stm32wbxx_ll_usb.c **** {
 259              		.loc 1 227 1 is_stmt 1 view -0
 260              		.cfi_startproc
 261              		@ args = 0, pretend = 0, frame = 0
 262              		@ frame_needed = 0, uses_anonymous_args = 0
 263              		.loc 1 227 1 is_stmt 0 view .LVU59
 264 0000 00B5     		push	{lr}
 265              		.cfi_def_cfa_offset 4
 266              		.cfi_offset 14, -4
 267 0002 0346     		mov	r3, r0
 228:Drivers/STM32WBxx_HAL_Driver/Src/stm32wbxx_ll_usb.c ****   HAL_StatusTypeDef ret = HAL_OK;
 268              		.loc 1 228 3 is_stmt 1 view .LVU60
 269              	.LVL16:
 229:Drivers/STM32WBxx_HAL_Driver/Src/stm32wbxx_ll_usb.c ****   uint16_t wEpRegVal;
 270              		.loc 1 229 3 view .LVU61
 230:Drivers/STM32WBxx_HAL_Driver/Src/stm32wbxx_ll_usb.c **** 
 231:Drivers/STM32WBxx_HAL_Driver/Src/stm32wbxx_ll_usb.c ****   wEpRegVal = PCD_GET_ENDPOINT(USBx, ep->num) & USB_EP_T_MASK;
 271              		.loc 1 231 3 view .LVU62
 272              		.loc 1 231 15 is_stmt 0 view .LVU63
 273 0004 91F800C0 		ldrb	ip, [r1]	@ zero_extendqisi2
 274              		.loc 1 231 47 view .LVU64
 275 0008 30F82C20 		ldrh	r2, [r0, ip, lsl #2]
 276 000c 92B2     		uxth	r2, r2
 277              		.loc 1 231 13 view .LVU65
 278 000e 22F4EC42 		bic	r2, r2, #30208
 279 0012 22F07002 		bic	r2, r2, #112
 280 0016 92B2     		uxth	r2, r2
 281              	.LVL17:
 232:Drivers/STM32WBxx_HAL_Driver/Src/stm32wbxx_ll_usb.c **** 
 233:Drivers/STM32WBxx_HAL_Driver/Src/stm32wbxx_ll_usb.c ****   /* initialize Endpoint */
 234:Drivers/STM32WBxx_HAL_Driver/Src/stm32wbxx_ll_usb.c ****   switch (ep->type)
 282              		.loc 1 234 3 is_stmt 1 view .LVU66
 283              		.loc 1 234 13 is_stmt 0 view .LVU67
 284 0018 C878     		ldrb	r0, [r1, #3]	@ zero_extendqisi2
 285              	.LVL18:
 286              		.loc 1 234 3 view .LVU68
 287 001a 0228     		cmp	r0, #2
 288 001c 67D0     		beq	.L49
 289 001e 08D8     		bhi	.L12
 290 0020 78B1     		cbz	r0, .L13
 291 0022 0128     		cmp	r0, #1
 292 0024 03D1     		bne	.L51
 235:Drivers/STM32WBxx_HAL_Driver/Src/stm32wbxx_ll_usb.c ****   {
 236:Drivers/STM32WBxx_HAL_Driver/Src/stm32wbxx_ll_usb.c ****     case EP_TYPE_CTRL:
ARM GAS  C:\Users\Nathan\AppData\Local\Temp\ccuhR5Xd.s 			page 10


 237:Drivers/STM32WBxx_HAL_Driver/Src/stm32wbxx_ll_usb.c ****       wEpRegVal |= USB_EP_CONTROL;
 238:Drivers/STM32WBxx_HAL_Driver/Src/stm32wbxx_ll_usb.c ****       break;
 239:Drivers/STM32WBxx_HAL_Driver/Src/stm32wbxx_ll_usb.c **** 
 240:Drivers/STM32WBxx_HAL_Driver/Src/stm32wbxx_ll_usb.c ****     case EP_TYPE_BULK:
 241:Drivers/STM32WBxx_HAL_Driver/Src/stm32wbxx_ll_usb.c ****       wEpRegVal |= USB_EP_BULK;
 242:Drivers/STM32WBxx_HAL_Driver/Src/stm32wbxx_ll_usb.c ****       break;
 243:Drivers/STM32WBxx_HAL_Driver/Src/stm32wbxx_ll_usb.c **** 
 244:Drivers/STM32WBxx_HAL_Driver/Src/stm32wbxx_ll_usb.c ****     case EP_TYPE_INTR:
 245:Drivers/STM32WBxx_HAL_Driver/Src/stm32wbxx_ll_usb.c ****       wEpRegVal |= USB_EP_INTERRUPT;
 246:Drivers/STM32WBxx_HAL_Driver/Src/stm32wbxx_ll_usb.c ****       break;
 247:Drivers/STM32WBxx_HAL_Driver/Src/stm32wbxx_ll_usb.c **** 
 248:Drivers/STM32WBxx_HAL_Driver/Src/stm32wbxx_ll_usb.c ****     case EP_TYPE_ISOC:
 249:Drivers/STM32WBxx_HAL_Driver/Src/stm32wbxx_ll_usb.c ****       wEpRegVal |= USB_EP_ISOCHRONOUS;
 293              		.loc 1 249 7 is_stmt 1 view .LVU69
 294              		.loc 1 249 17 is_stmt 0 view .LVU70
 295 0026 42F48062 		orr	r2, r2, #1024
 296              	.LVL19:
 250:Drivers/STM32WBxx_HAL_Driver/Src/stm32wbxx_ll_usb.c ****       break;
 297              		.loc 1 250 7 is_stmt 1 view .LVU71
 228:Drivers/STM32WBxx_HAL_Driver/Src/stm32wbxx_ll_usb.c ****   uint16_t wEpRegVal;
 298              		.loc 1 228 21 is_stmt 0 view .LVU72
 299 002a 0020     		movs	r0, #0
 300              		.loc 1 250 7 view .LVU73
 301 002c 0BE0     		b	.L11
 302              	.L51:
 251:Drivers/STM32WBxx_HAL_Driver/Src/stm32wbxx_ll_usb.c **** 
 252:Drivers/STM32WBxx_HAL_Driver/Src/stm32wbxx_ll_usb.c ****     default:
 253:Drivers/STM32WBxx_HAL_Driver/Src/stm32wbxx_ll_usb.c ****       ret = HAL_ERROR;
 303              		.loc 1 253 11 view .LVU74
 304 002e 0120     		movs	r0, #1
 305 0030 09E0     		b	.L11
 306              	.L12:
 234:Drivers/STM32WBxx_HAL_Driver/Src/stm32wbxx_ll_usb.c ****   {
 307              		.loc 1 234 3 view .LVU75
 308 0032 0328     		cmp	r0, #3
 309 0034 03D1     		bne	.L52
 245:Drivers/STM32WBxx_HAL_Driver/Src/stm32wbxx_ll_usb.c ****       break;
 310              		.loc 1 245 7 is_stmt 1 view .LVU76
 245:Drivers/STM32WBxx_HAL_Driver/Src/stm32wbxx_ll_usb.c ****       break;
 311              		.loc 1 245 17 is_stmt 0 view .LVU77
 312 0036 42F4C062 		orr	r2, r2, #1536
 313              	.LVL20:
 246:Drivers/STM32WBxx_HAL_Driver/Src/stm32wbxx_ll_usb.c **** 
 314              		.loc 1 246 7 is_stmt 1 view .LVU78
 228:Drivers/STM32WBxx_HAL_Driver/Src/stm32wbxx_ll_usb.c ****   uint16_t wEpRegVal;
 315              		.loc 1 228 21 is_stmt 0 view .LVU79
 316 003a 0020     		movs	r0, #0
 246:Drivers/STM32WBxx_HAL_Driver/Src/stm32wbxx_ll_usb.c **** 
 317              		.loc 1 246 7 view .LVU80
 318 003c 03E0     		b	.L11
 319              	.L52:
 320              		.loc 1 253 11 view .LVU81
 321 003e 0120     		movs	r0, #1
 322 0040 01E0     		b	.L11
 323              	.L13:
 237:Drivers/STM32WBxx_HAL_Driver/Src/stm32wbxx_ll_usb.c ****       break;
 324              		.loc 1 237 7 is_stmt 1 view .LVU82
ARM GAS  C:\Users\Nathan\AppData\Local\Temp\ccuhR5Xd.s 			page 11


 237:Drivers/STM32WBxx_HAL_Driver/Src/stm32wbxx_ll_usb.c ****       break;
 325              		.loc 1 237 17 is_stmt 0 view .LVU83
 326 0042 42F40072 		orr	r2, r2, #512
 327              	.LVL21:
 238:Drivers/STM32WBxx_HAL_Driver/Src/stm32wbxx_ll_usb.c **** 
 328              		.loc 1 238 7 is_stmt 1 view .LVU84
 329              	.L11:
 254:Drivers/STM32WBxx_HAL_Driver/Src/stm32wbxx_ll_usb.c ****       break;
 255:Drivers/STM32WBxx_HAL_Driver/Src/stm32wbxx_ll_usb.c ****   }
 256:Drivers/STM32WBxx_HAL_Driver/Src/stm32wbxx_ll_usb.c **** 
 257:Drivers/STM32WBxx_HAL_Driver/Src/stm32wbxx_ll_usb.c ****   PCD_SET_ENDPOINT(USBx, ep->num, (wEpRegVal | USB_EP_CTR_RX | USB_EP_CTR_TX));
 330              		.loc 1 257 3 view .LVU85
 331 0046 48F2800E 		movw	lr, #32896
 332 004a 42EA0E02 		orr	r2, r2, lr
 333              	.LVL22:
 334              		.loc 1 257 3 is_stmt 0 view .LVU86
 335 004e 23F82C20 		strh	r2, [r3, ip, lsl #2]	@ movhi
 258:Drivers/STM32WBxx_HAL_Driver/Src/stm32wbxx_ll_usb.c **** 
 259:Drivers/STM32WBxx_HAL_Driver/Src/stm32wbxx_ll_usb.c ****   PCD_SET_EP_ADDRESS(USBx, ep->num, ep->num);
 336              		.loc 1 259 3 is_stmt 1 view .LVU87
 337              	.LBB2:
 338              		.loc 1 259 3 view .LVU88
 339              		.loc 1 259 3 view .LVU89
 340 0052 91F800C0 		ldrb	ip, [r1]	@ zero_extendqisi2
 341 0056 33F82C20 		ldrh	r2, [r3, ip, lsl #2]
 342 005a 92B2     		uxth	r2, r2
 343 005c 22F4E042 		bic	r2, r2, #28672
 344 0060 22F07002 		bic	r2, r2, #112
 345 0064 4CEA0202 		orr	r2, ip, r2
 346              	.LVL23:
 347              		.loc 1 259 3 view .LVU90
 348 0068 42EA0E02 		orr	r2, r2, lr
 349              	.LVL24:
 350              		.loc 1 259 3 is_stmt 0 view .LVU91
 351 006c 23F82C20 		strh	r2, [r3, ip, lsl #2]	@ movhi
 352              	.LBE2:
 353              		.loc 1 259 3 is_stmt 1 view .LVU92
 260:Drivers/STM32WBxx_HAL_Driver/Src/stm32wbxx_ll_usb.c **** 
 261:Drivers/STM32WBxx_HAL_Driver/Src/stm32wbxx_ll_usb.c ****   if (ep->doublebuffer == 0U)
 354              		.loc 1 261 3 view .LVU93
 355              		.loc 1 261 9 is_stmt 0 view .LVU94
 356 0070 0A7B     		ldrb	r2, [r1, #12]	@ zero_extendqisi2
 357              		.loc 1 261 6 view .LVU95
 358 0072 002A     		cmp	r2, #0
 359 0074 40F0DC80 		bne	.L16
 262:Drivers/STM32WBxx_HAL_Driver/Src/stm32wbxx_ll_usb.c ****   {
 263:Drivers/STM32WBxx_HAL_Driver/Src/stm32wbxx_ll_usb.c ****     if (ep->is_in != 0U)
 360              		.loc 1 263 5 is_stmt 1 view .LVU96
 361              		.loc 1 263 11 is_stmt 0 view .LVU97
 362 0078 4A78     		ldrb	r2, [r1, #1]	@ zero_extendqisi2
 363              		.loc 1 263 8 view .LVU98
 364 007a 002A     		cmp	r2, #0
 365 007c 48D0     		beq	.L17
 264:Drivers/STM32WBxx_HAL_Driver/Src/stm32wbxx_ll_usb.c ****     {
 265:Drivers/STM32WBxx_HAL_Driver/Src/stm32wbxx_ll_usb.c ****       /*Set the endpoint Transmit buffer address */
 266:Drivers/STM32WBxx_HAL_Driver/Src/stm32wbxx_ll_usb.c ****       PCD_SET_EP_TX_ADDRESS(USBx, ep->num, ep->pmaadress);
 366              		.loc 1 266 7 is_stmt 1 view .LVU99
ARM GAS  C:\Users\Nathan\AppData\Local\Temp\ccuhR5Xd.s 			page 12


 367              	.LBB3:
 368              		.loc 1 266 7 view .LVU100
 369              		.loc 1 266 7 view .LVU101
 370              	.LVL25:
 371              		.loc 1 266 7 view .LVU102
 372 007e B3F85020 		ldrh	r2, [r3, #80]
 373 0082 13FA82F2 		uxtah	r2, r3, r2
 374              	.LVL26:
 375              		.loc 1 266 7 view .LVU103
 376 0086 91F800C0 		ldrb	ip, [r1]	@ zero_extendqisi2
 377              		.loc 1 266 7 is_stmt 0 view .LVU104
 378 008a 02EBCC02 		add	r2, r2, ip, lsl #3
 379              	.LVL27:
 380              		.loc 1 266 7 is_stmt 1 view .LVU105
 381 008e B1F806C0 		ldrh	ip, [r1, #6]
 382 0092 4FEA5C0C 		lsr	ip, ip, #1
 383 0096 4FEA4C0C 		lsl	ip, ip, #1
 384 009a A2F800C4 		strh	ip, [r2, #1024]	@ movhi
 385              	.LBE3:
 386              		.loc 1 266 7 view .LVU106
 267:Drivers/STM32WBxx_HAL_Driver/Src/stm32wbxx_ll_usb.c ****       PCD_CLEAR_TX_DTOG(USBx, ep->num);
 387              		.loc 1 267 7 view .LVU107
 388              	.LBB4:
 389              		.loc 1 267 7 view .LVU108
 390              		.loc 1 267 7 view .LVU109
 391 009e 91F800C0 		ldrb	ip, [r1]	@ zero_extendqisi2
 392 00a2 33F82C20 		ldrh	r2, [r3, ip, lsl #2]
 393              	.LVL28:
 394              		.loc 1 267 7 view .LVU110
 395 00a6 12F0400F 		tst	r2, #64
 396 00aa 0CD0     		beq	.L18
 397              		.loc 1 267 7 discriminator 1 view .LVU111
 398              	.LBB5:
 399              		.loc 1 267 7 discriminator 1 view .LVU112
 400              		.loc 1 267 7 discriminator 1 view .LVU113
 401 00ac 33F82C20 		ldrh	r2, [r3, ip, lsl #2]
 402              	.LVL29:
 403              		.loc 1 267 7 is_stmt 0 discriminator 1 view .LVU114
 404 00b0 92B2     		uxth	r2, r2
 405 00b2 22F4E042 		bic	r2, r2, #28672
 406 00b6 22F07002 		bic	r2, r2, #112
 407              	.LVL30:
 408              		.loc 1 267 7 is_stmt 1 view .LVU115
 409              		.loc 1 267 7 is_stmt 0 discriminator 1 view .LVU116
 410 00ba 42F40042 		orr	r2, r2, #32768
 411              	.LVL31:
 412              		.loc 1 267 7 discriminator 1 view .LVU117
 413 00be 42F0C002 		orr	r2, r2, #192
 414 00c2 23F82C20 		strh	r2, [r3, ip, lsl #2]	@ movhi
 415              	.LVL32:
 416              	.L18:
 417              		.loc 1 267 7 discriminator 1 view .LVU118
 418              	.LBE5:
 419              		.loc 1 267 7 is_stmt 1 view .LVU119
 420              	.LBE4:
 421              		.loc 1 267 7 view .LVU120
 268:Drivers/STM32WBxx_HAL_Driver/Src/stm32wbxx_ll_usb.c **** 
ARM GAS  C:\Users\Nathan\AppData\Local\Temp\ccuhR5Xd.s 			page 13


 269:Drivers/STM32WBxx_HAL_Driver/Src/stm32wbxx_ll_usb.c ****       if (ep->type != EP_TYPE_ISOC)
 422              		.loc 1 269 7 view .LVU121
 423              		.loc 1 269 13 is_stmt 0 view .LVU122
 424 00c6 CA78     		ldrb	r2, [r1, #3]	@ zero_extendqisi2
 425              		.loc 1 269 10 view .LVU123
 426 00c8 012A     		cmp	r2, #1
 427 00ca 12D0     		beq	.L19
 270:Drivers/STM32WBxx_HAL_Driver/Src/stm32wbxx_ll_usb.c ****       {
 271:Drivers/STM32WBxx_HAL_Driver/Src/stm32wbxx_ll_usb.c ****         /* Configure NAK status for the Endpoint */
 272:Drivers/STM32WBxx_HAL_Driver/Src/stm32wbxx_ll_usb.c ****         PCD_SET_EP_TX_STATUS(USBx, ep->num, USB_EP_TX_NAK);
 428              		.loc 1 272 9 is_stmt 1 view .LVU124
 429              	.LBB6:
 430              		.loc 1 272 9 view .LVU125
 431              		.loc 1 272 9 view .LVU126
 432 00cc 0978     		ldrb	r1, [r1]	@ zero_extendqisi2
 433              	.LVL33:
 434              		.loc 1 272 9 is_stmt 0 view .LVU127
 435 00ce 33F82120 		ldrh	r2, [r3, r1, lsl #2]
 436 00d2 92B2     		uxth	r2, r2
 437 00d4 22F4E042 		bic	r2, r2, #28672
 438 00d8 22F04002 		bic	r2, r2, #64
 439              	.LVL34:
 440              		.loc 1 272 9 is_stmt 1 view .LVU128
 441              		.loc 1 272 9 discriminator 3 view .LVU129
 442              		.loc 1 272 9 discriminator 4 view .LVU130
 443 00dc 82F02002 		eor	r2, r2, #32
 444              	.LVL35:
 445              		.loc 1 272 9 discriminator 6 view .LVU131
 446 00e0 42F40042 		orr	r2, r2, #32768
 447              	.LVL36:
 448              		.loc 1 272 9 is_stmt 0 discriminator 6 view .LVU132
 449 00e4 42F08002 		orr	r2, r2, #128
 450 00e8 23F82120 		strh	r2, [r3, r1, lsl #2]	@ movhi
 451              	.LBE6:
 452              		.loc 1 272 9 is_stmt 1 view .LVU133
 453 00ec D8E1     		b	.L20
 454              	.LVL37:
 455              	.L49:
 234:Drivers/STM32WBxx_HAL_Driver/Src/stm32wbxx_ll_usb.c ****   {
 456              		.loc 1 234 3 is_stmt 0 view .LVU134
 457 00ee 0020     		movs	r0, #0
 458 00f0 A9E7     		b	.L11
 459              	.LVL38:
 460              	.L19:
 273:Drivers/STM32WBxx_HAL_Driver/Src/stm32wbxx_ll_usb.c ****       }
 274:Drivers/STM32WBxx_HAL_Driver/Src/stm32wbxx_ll_usb.c ****       else
 275:Drivers/STM32WBxx_HAL_Driver/Src/stm32wbxx_ll_usb.c ****       {
 276:Drivers/STM32WBxx_HAL_Driver/Src/stm32wbxx_ll_usb.c ****         /* Configure TX Endpoint to disabled state */
 277:Drivers/STM32WBxx_HAL_Driver/Src/stm32wbxx_ll_usb.c ****         PCD_SET_EP_TX_STATUS(USBx, ep->num, USB_EP_TX_DIS);
 461              		.loc 1 277 9 is_stmt 1 view .LVU135
 462              	.LBB7:
 463              		.loc 1 277 9 view .LVU136
 464              		.loc 1 277 9 view .LVU137
 465 00f2 0978     		ldrb	r1, [r1]	@ zero_extendqisi2
 466              	.LVL39:
 467              		.loc 1 277 9 is_stmt 0 view .LVU138
 468 00f4 33F82120 		ldrh	r2, [r3, r1, lsl #2]
ARM GAS  C:\Users\Nathan\AppData\Local\Temp\ccuhR5Xd.s 			page 14


 469 00f8 92B2     		uxth	r2, r2
 470 00fa 22F4E042 		bic	r2, r2, #28672
 471 00fe 22F04002 		bic	r2, r2, #64
 472              	.LVL40:
 473              		.loc 1 277 9 is_stmt 1 view .LVU139
 474              		.loc 1 277 9 discriminator 3 view .LVU140
 475              		.loc 1 277 9 discriminator 6 view .LVU141
 476 0102 42F40042 		orr	r2, r2, #32768
 477              	.LVL41:
 478              		.loc 1 277 9 is_stmt 0 discriminator 6 view .LVU142
 479 0106 42F08002 		orr	r2, r2, #128
 480 010a 23F82120 		strh	r2, [r3, r1, lsl #2]	@ movhi
 481 010e C7E1     		b	.L20
 482              	.LVL42:
 483              	.L17:
 484              		.loc 1 277 9 discriminator 6 view .LVU143
 485              	.LBE7:
 278:Drivers/STM32WBxx_HAL_Driver/Src/stm32wbxx_ll_usb.c ****       }
 279:Drivers/STM32WBxx_HAL_Driver/Src/stm32wbxx_ll_usb.c ****     }
 280:Drivers/STM32WBxx_HAL_Driver/Src/stm32wbxx_ll_usb.c ****     else
 281:Drivers/STM32WBxx_HAL_Driver/Src/stm32wbxx_ll_usb.c ****     {
 282:Drivers/STM32WBxx_HAL_Driver/Src/stm32wbxx_ll_usb.c ****       /* Set the endpoint Receive buffer address */
 283:Drivers/STM32WBxx_HAL_Driver/Src/stm32wbxx_ll_usb.c ****       PCD_SET_EP_RX_ADDRESS(USBx, ep->num, ep->pmaadress);
 486              		.loc 1 283 7 is_stmt 1 view .LVU144
 487              	.LBB8:
 488              		.loc 1 283 7 view .LVU145
 489              		.loc 1 283 7 view .LVU146
 490              		.loc 1 283 7 view .LVU147
 491 0110 B3F85020 		ldrh	r2, [r3, #80]
 492 0114 13FA82F2 		uxtah	r2, r3, r2
 493              	.LVL43:
 494              		.loc 1 283 7 view .LVU148
 495 0118 91F800C0 		ldrb	ip, [r1]	@ zero_extendqisi2
 496              		.loc 1 283 7 is_stmt 0 view .LVU149
 497 011c 02EBCC02 		add	r2, r2, ip, lsl #3
 498              	.LVL44:
 499              		.loc 1 283 7 is_stmt 1 view .LVU150
 500 0120 B1F806C0 		ldrh	ip, [r1, #6]
 501 0124 4FEA5C0C 		lsr	ip, ip, #1
 502 0128 4FEA4C0C 		lsl	ip, ip, #1
 503 012c A2F804C4 		strh	ip, [r2, #1028]	@ movhi
 504              	.LBE8:
 505              		.loc 1 283 7 view .LVU151
 284:Drivers/STM32WBxx_HAL_Driver/Src/stm32wbxx_ll_usb.c **** 
 285:Drivers/STM32WBxx_HAL_Driver/Src/stm32wbxx_ll_usb.c ****       /* Set the endpoint Receive buffer counter */
 286:Drivers/STM32WBxx_HAL_Driver/Src/stm32wbxx_ll_usb.c ****       PCD_SET_EP_RX_CNT(USBx, ep->num, ep->maxpacket);
 506              		.loc 1 286 7 view .LVU152
 507              	.LBB9:
 508              		.loc 1 286 7 view .LVU153
 509              	.LVL45:
 510              		.loc 1 286 7 view .LVU154
 511              		.loc 1 286 7 view .LVU155
 512 0130 B3F85020 		ldrh	r2, [r3, #80]
 513              	.LVL46:
 514              		.loc 1 286 7 is_stmt 0 view .LVU156
 515 0134 13FA82F2 		uxtah	r2, r3, r2
 516              	.LVL47:
ARM GAS  C:\Users\Nathan\AppData\Local\Temp\ccuhR5Xd.s 			page 15


 517              		.loc 1 286 7 is_stmt 1 view .LVU157
 518 0138 91F800C0 		ldrb	ip, [r1]	@ zero_extendqisi2
 519 013c 02EBCC02 		add	r2, r2, ip, lsl #3
 520              	.LVL48:
 521              		.loc 1 286 7 view .LVU158
 522              	.LBB10:
 523              		.loc 1 286 7 view .LVU159
 524              		.loc 1 286 7 view .LVU160
 525 0140 B2F806C4 		ldrh	ip, [r2, #1030]
 526 0144 CCF3090C 		ubfx	ip, ip, #0, #10
 527 0148 A2F806C4 		strh	ip, [r2, #1030]	@ movhi
 528              		.loc 1 286 7 view .LVU161
 529 014c D1F810C0 		ldr	ip, [r1, #16]
 530 0150 BCF1000F 		cmp	ip, #0
 531 0154 2FD1     		bne	.L21
 532              		.loc 1 286 7 discriminator 1 view .LVU162
 533 0156 B2F806C4 		ldrh	ip, [r2, #1030]
 534 015a 6FEA4C4C 		mvn	ip, ip, lsl #17
 535 015e 6FEA5C4C 		mvn	ip, ip, lsr #17
 536 0162 1FFA8CFC 		uxth	ip, ip
 537 0166 A2F806C4 		strh	ip, [r2, #1030]	@ movhi
 538              	.L22:
 539              		.loc 1 286 7 view .LVU163
 540              	.LBE10:
 541              		.loc 1 286 7 view .LVU164
 542              	.LBE9:
 543              		.loc 1 286 7 view .LVU165
 287:Drivers/STM32WBxx_HAL_Driver/Src/stm32wbxx_ll_usb.c ****       PCD_CLEAR_RX_DTOG(USBx, ep->num);
 544              		.loc 1 287 7 view .LVU166
 545              	.LBB12:
 546              		.loc 1 287 7 view .LVU167
 547              		.loc 1 287 7 view .LVU168
 548 016a 91F800C0 		ldrb	ip, [r1]	@ zero_extendqisi2
 549 016e 33F82C20 		ldrh	r2, [r3, ip, lsl #2]
 550              	.LVL49:
 551              		.loc 1 287 7 view .LVU169
 552 0172 12F4804F 		tst	r2, #16384
 553 0176 0CD0     		beq	.L26
 554              		.loc 1 287 7 discriminator 1 view .LVU170
 555              	.LBB13:
 556              		.loc 1 287 7 discriminator 1 view .LVU171
 557              		.loc 1 287 7 discriminator 1 view .LVU172
 558 0178 33F82C20 		ldrh	r2, [r3, ip, lsl #2]
 559              	.LVL50:
 560              		.loc 1 287 7 is_stmt 0 discriminator 1 view .LVU173
 561 017c 92B2     		uxth	r2, r2
 562 017e 22F4E042 		bic	r2, r2, #28672
 563 0182 22F07002 		bic	r2, r2, #112
 564              	.LVL51:
 565              		.loc 1 287 7 is_stmt 1 view .LVU174
 566              		.loc 1 287 7 is_stmt 0 discriminator 1 view .LVU175
 567 0186 42F44042 		orr	r2, r2, #49152
 568              	.LVL52:
 569              		.loc 1 287 7 discriminator 1 view .LVU176
 570 018a 42F08002 		orr	r2, r2, #128
 571 018e 23F82C20 		strh	r2, [r3, ip, lsl #2]	@ movhi
 572              	.LVL53:
ARM GAS  C:\Users\Nathan\AppData\Local\Temp\ccuhR5Xd.s 			page 16


 573              	.L26:
 574              		.loc 1 287 7 discriminator 1 view .LVU177
 575              	.LBE13:
 576              		.loc 1 287 7 is_stmt 1 view .LVU178
 577              	.LBE12:
 578              		.loc 1 287 7 view .LVU179
 288:Drivers/STM32WBxx_HAL_Driver/Src/stm32wbxx_ll_usb.c **** 
 289:Drivers/STM32WBxx_HAL_Driver/Src/stm32wbxx_ll_usb.c ****       if (ep->num == 0U)
 579              		.loc 1 289 7 view .LVU180
 580              		.loc 1 289 13 is_stmt 0 view .LVU181
 581 0192 0978     		ldrb	r1, [r1]	@ zero_extendqisi2
 582              	.LVL54:
 583              		.loc 1 289 10 view .LVU182
 584 0194 E1BB     		cbnz	r1, .L27
 290:Drivers/STM32WBxx_HAL_Driver/Src/stm32wbxx_ll_usb.c ****       {
 291:Drivers/STM32WBxx_HAL_Driver/Src/stm32wbxx_ll_usb.c ****         /* Configure VALID status for EP0 */
 292:Drivers/STM32WBxx_HAL_Driver/Src/stm32wbxx_ll_usb.c ****         PCD_SET_EP_RX_STATUS(USBx, ep->num, USB_EP_RX_VALID);
 585              		.loc 1 292 9 is_stmt 1 view .LVU183
 586              	.LBB14:
 587              		.loc 1 292 9 view .LVU184
 588              		.loc 1 292 9 view .LVU185
 589 0196 33F82120 		ldrh	r2, [r3, r1, lsl #2]
 590 019a 92B2     		uxth	r2, r2
 591 019c 22F48042 		bic	r2, r2, #16384
 592 01a0 22F07002 		bic	r2, r2, #112
 593              		.loc 1 292 9 view .LVU186
 594              		.loc 1 292 9 discriminator 1 view .LVU187
 595              	.LVL55:
 596              		.loc 1 292 9 discriminator 3 view .LVU188
 597              		.loc 1 292 9 discriminator 4 view .LVU189
 598 01a4 82F44052 		eor	r2, r2, #12288
 599              	.LVL56:
 600              		.loc 1 292 9 discriminator 6 view .LVU190
 601 01a8 42F40042 		orr	r2, r2, #32768
 602              	.LVL57:
 603              		.loc 1 292 9 is_stmt 0 discriminator 6 view .LVU191
 604 01ac 42F08002 		orr	r2, r2, #128
 605 01b0 23F82120 		strh	r2, [r3, r1, lsl #2]	@ movhi
 606              	.LBE14:
 607              		.loc 1 292 9 is_stmt 1 view .LVU192
 608 01b4 74E1     		b	.L20
 609              	.LVL58:
 610              	.L21:
 611              	.LBB15:
 612              	.LBB11:
 286:Drivers/STM32WBxx_HAL_Driver/Src/stm32wbxx_ll_usb.c ****       PCD_CLEAR_RX_DTOG(USBx, ep->num);
 613              		.loc 1 286 7 discriminator 2 view .LVU193
 614 01b6 BCF13E0F 		cmp	ip, #62
 615 01ba 13D8     		bhi	.L23
 286:Drivers/STM32WBxx_HAL_Driver/Src/stm32wbxx_ll_usb.c ****       PCD_CLEAR_RX_DTOG(USBx, ep->num);
 616              		.loc 1 286 7 discriminator 3 view .LVU194
 286:Drivers/STM32WBxx_HAL_Driver/Src/stm32wbxx_ll_usb.c ****       PCD_CLEAR_RX_DTOG(USBx, ep->num);
 617              		.loc 1 286 7 discriminator 3 view .LVU195
 618 01bc 4FEA5C0E 		lsr	lr, ip, #1
 619              	.LVL59:
 286:Drivers/STM32WBxx_HAL_Driver/Src/stm32wbxx_ll_usb.c ****       PCD_CLEAR_RX_DTOG(USBx, ep->num);
 620              		.loc 1 286 7 view .LVU196
ARM GAS  C:\Users\Nathan\AppData\Local\Temp\ccuhR5Xd.s 			page 17


 286:Drivers/STM32WBxx_HAL_Driver/Src/stm32wbxx_ll_usb.c ****       PCD_CLEAR_RX_DTOG(USBx, ep->num);
 621              		.loc 1 286 7 is_stmt 0 discriminator 3 view .LVU197
 622 01c0 1CF0010F 		tst	ip, #1
 623 01c4 01D0     		beq	.L24
 286:Drivers/STM32WBxx_HAL_Driver/Src/stm32wbxx_ll_usb.c ****       PCD_CLEAR_RX_DTOG(USBx, ep->num);
 624              		.loc 1 286 7 is_stmt 1 discriminator 5 view .LVU198
 625 01c6 0EF1010E 		add	lr, lr, #1
 626              	.LVL60:
 627              	.L24:
 286:Drivers/STM32WBxx_HAL_Driver/Src/stm32wbxx_ll_usb.c ****       PCD_CLEAR_RX_DTOG(USBx, ep->num);
 628              		.loc 1 286 7 discriminator 7 view .LVU199
 629 01ca B2F806C4 		ldrh	ip, [r2, #1030]
 630 01ce 1FFA8CFC 		uxth	ip, ip
 631 01d2 4FEA8E2E 		lsl	lr, lr, #10
 632              	.LVL61:
 286:Drivers/STM32WBxx_HAL_Driver/Src/stm32wbxx_ll_usb.c ****       PCD_CLEAR_RX_DTOG(USBx, ep->num);
 633              		.loc 1 286 7 is_stmt 0 discriminator 7 view .LVU200
 634 01d6 1FFA8EFE 		uxth	lr, lr
 635 01da 4CEA0E0C 		orr	ip, ip, lr
 636 01de A2F806C4 		strh	ip, [r2, #1030]	@ movhi
 286:Drivers/STM32WBxx_HAL_Driver/Src/stm32wbxx_ll_usb.c ****       PCD_CLEAR_RX_DTOG(USBx, ep->num);
 637              		.loc 1 286 7 is_stmt 1 view .LVU201
 638 01e2 C2E7     		b	.L22
 639              	.LVL62:
 640              	.L23:
 286:Drivers/STM32WBxx_HAL_Driver/Src/stm32wbxx_ll_usb.c ****       PCD_CLEAR_RX_DTOG(USBx, ep->num);
 641              		.loc 1 286 7 discriminator 4 view .LVU202
 286:Drivers/STM32WBxx_HAL_Driver/Src/stm32wbxx_ll_usb.c ****       PCD_CLEAR_RX_DTOG(USBx, ep->num);
 642              		.loc 1 286 7 discriminator 4 view .LVU203
 643 01e4 4FEA5C1E 		lsr	lr, ip, #5
 644              	.LVL63:
 286:Drivers/STM32WBxx_HAL_Driver/Src/stm32wbxx_ll_usb.c ****       PCD_CLEAR_RX_DTOG(USBx, ep->num);
 645              		.loc 1 286 7 view .LVU204
 286:Drivers/STM32WBxx_HAL_Driver/Src/stm32wbxx_ll_usb.c ****       PCD_CLEAR_RX_DTOG(USBx, ep->num);
 646              		.loc 1 286 7 is_stmt 0 discriminator 4 view .LVU205
 647 01e8 1CF01F0F 		tst	ip, #31
 648 01ec 01D1     		bne	.L25
 286:Drivers/STM32WBxx_HAL_Driver/Src/stm32wbxx_ll_usb.c ****       PCD_CLEAR_RX_DTOG(USBx, ep->num);
 649              		.loc 1 286 7 is_stmt 1 discriminator 8 view .LVU206
 650 01ee 0EF1FF3E 		add	lr, lr, #-1
 651              	.LVL64:
 652              	.L25:
 286:Drivers/STM32WBxx_HAL_Driver/Src/stm32wbxx_ll_usb.c ****       PCD_CLEAR_RX_DTOG(USBx, ep->num);
 653              		.loc 1 286 7 discriminator 10 view .LVU207
 654 01f2 B2F806C4 		ldrh	ip, [r2, #1030]
 655 01f6 1FFA8CFC 		uxth	ip, ip
 656 01fa 4FEA8E2E 		lsl	lr, lr, #10
 657              	.LVL65:
 286:Drivers/STM32WBxx_HAL_Driver/Src/stm32wbxx_ll_usb.c ****       PCD_CLEAR_RX_DTOG(USBx, ep->num);
 658              		.loc 1 286 7 is_stmt 0 discriminator 10 view .LVU208
 659 01fe 1FFA8EFE 		uxth	lr, lr
 660 0202 4CEA0E0C 		orr	ip, ip, lr
 661 0206 4CF4004C 		orr	ip, ip, #32768
 662 020a A2F806C4 		strh	ip, [r2, #1030]	@ movhi
 663 020e ACE7     		b	.L22
 664              	.LVL66:
 665              	.L27:
ARM GAS  C:\Users\Nathan\AppData\Local\Temp\ccuhR5Xd.s 			page 18


 286:Drivers/STM32WBxx_HAL_Driver/Src/stm32wbxx_ll_usb.c ****       PCD_CLEAR_RX_DTOG(USBx, ep->num);
 666              		.loc 1 286 7 discriminator 10 view .LVU209
 667              	.LBE11:
 668              	.LBE15:
 293:Drivers/STM32WBxx_HAL_Driver/Src/stm32wbxx_ll_usb.c ****       }
 294:Drivers/STM32WBxx_HAL_Driver/Src/stm32wbxx_ll_usb.c ****       else
 295:Drivers/STM32WBxx_HAL_Driver/Src/stm32wbxx_ll_usb.c ****       {
 296:Drivers/STM32WBxx_HAL_Driver/Src/stm32wbxx_ll_usb.c ****         /* Configure NAK status for OUT Endpoint */
 297:Drivers/STM32WBxx_HAL_Driver/Src/stm32wbxx_ll_usb.c ****         PCD_SET_EP_RX_STATUS(USBx, ep->num, USB_EP_RX_NAK);
 669              		.loc 1 297 9 is_stmt 1 view .LVU210
 670              	.LBB16:
 671              		.loc 1 297 9 view .LVU211
 672              		.loc 1 297 9 view .LVU212
 673 0210 33F82120 		ldrh	r2, [r3, r1, lsl #2]
 674 0214 92B2     		uxth	r2, r2
 675 0216 22F48042 		bic	r2, r2, #16384
 676 021a 22F07002 		bic	r2, r2, #112
 677              	.LVL67:
 678              		.loc 1 297 9 view .LVU213
 679              		.loc 1 297 9 discriminator 3 view .LVU214
 680              		.loc 1 297 9 discriminator 4 view .LVU215
 681 021e 82F40052 		eor	r2, r2, #8192
 682              	.LVL68:
 683              		.loc 1 297 9 discriminator 6 view .LVU216
 684 0222 42F40042 		orr	r2, r2, #32768
 685              	.LVL69:
 686              		.loc 1 297 9 is_stmt 0 discriminator 6 view .LVU217
 687 0226 42F08002 		orr	r2, r2, #128
 688 022a 23F82120 		strh	r2, [r3, r1, lsl #2]	@ movhi
 689 022e 37E1     		b	.L20
 690              	.LVL70:
 691              	.L16:
 692              		.loc 1 297 9 discriminator 6 view .LVU218
 693              	.LBE16:
 298:Drivers/STM32WBxx_HAL_Driver/Src/stm32wbxx_ll_usb.c ****       }
 299:Drivers/STM32WBxx_HAL_Driver/Src/stm32wbxx_ll_usb.c ****     }
 300:Drivers/STM32WBxx_HAL_Driver/Src/stm32wbxx_ll_usb.c ****   }
 301:Drivers/STM32WBxx_HAL_Driver/Src/stm32wbxx_ll_usb.c **** #if (USE_USB_DOUBLE_BUFFER == 1U)
 302:Drivers/STM32WBxx_HAL_Driver/Src/stm32wbxx_ll_usb.c ****   /* Double Buffer */
 303:Drivers/STM32WBxx_HAL_Driver/Src/stm32wbxx_ll_usb.c ****   else
 304:Drivers/STM32WBxx_HAL_Driver/Src/stm32wbxx_ll_usb.c ****   {
 305:Drivers/STM32WBxx_HAL_Driver/Src/stm32wbxx_ll_usb.c ****     if (ep->type == EP_TYPE_BULK)
 694              		.loc 1 305 5 is_stmt 1 view .LVU219
 695              		.loc 1 305 11 is_stmt 0 view .LVU220
 696 0230 CA78     		ldrb	r2, [r1, #3]	@ zero_extendqisi2
 697              		.loc 1 305 8 view .LVU221
 698 0232 022A     		cmp	r2, #2
 699 0234 7BD0     		beq	.L53
 306:Drivers/STM32WBxx_HAL_Driver/Src/stm32wbxx_ll_usb.c ****     {
 307:Drivers/STM32WBxx_HAL_Driver/Src/stm32wbxx_ll_usb.c ****       /* Set bulk endpoint as double buffered */
 308:Drivers/STM32WBxx_HAL_Driver/Src/stm32wbxx_ll_usb.c ****       PCD_SET_BULK_EP_DBUF(USBx, ep->num);
 309:Drivers/STM32WBxx_HAL_Driver/Src/stm32wbxx_ll_usb.c ****     }
 310:Drivers/STM32WBxx_HAL_Driver/Src/stm32wbxx_ll_usb.c ****     else
 311:Drivers/STM32WBxx_HAL_Driver/Src/stm32wbxx_ll_usb.c ****     {
 312:Drivers/STM32WBxx_HAL_Driver/Src/stm32wbxx_ll_usb.c ****       /* Set the ISOC endpoint in double buffer mode */
 313:Drivers/STM32WBxx_HAL_Driver/Src/stm32wbxx_ll_usb.c ****       PCD_CLEAR_EP_KIND(USBx, ep->num);
 700              		.loc 1 313 7 is_stmt 1 view .LVU222
ARM GAS  C:\Users\Nathan\AppData\Local\Temp\ccuhR5Xd.s 			page 19


 701              	.LBB17:
 702              		.loc 1 313 7 view .LVU223
 703              		.loc 1 313 7 view .LVU224
 704 0236 91F800C0 		ldrb	ip, [r1]	@ zero_extendqisi2
 705              		.loc 1 313 7 is_stmt 0 view .LVU225
 706 023a 33F82C20 		ldrh	r2, [r3, ip, lsl #2]
 707 023e 92B2     		uxth	r2, r2
 708 0240 22F4E242 		bic	r2, r2, #28928
 709 0244 22F07002 		bic	r2, r2, #112
 710              	.LVL71:
 711              		.loc 1 313 7 is_stmt 1 view .LVU226
 712 0248 42F40042 		orr	r2, r2, #32768
 713              	.LVL72:
 714              		.loc 1 313 7 is_stmt 0 view .LVU227
 715 024c 42F08002 		orr	r2, r2, #128
 716 0250 23F82C20 		strh	r2, [r3, ip, lsl #2]	@ movhi
 717              	.LVL73:
 718              	.L29:
 719              		.loc 1 313 7 view .LVU228
 720              	.LBE17:
 721              		.loc 1 313 7 is_stmt 1 view .LVU229
 314:Drivers/STM32WBxx_HAL_Driver/Src/stm32wbxx_ll_usb.c ****     }
 315:Drivers/STM32WBxx_HAL_Driver/Src/stm32wbxx_ll_usb.c **** 
 316:Drivers/STM32WBxx_HAL_Driver/Src/stm32wbxx_ll_usb.c ****     /* Set buffer address for double buffered mode */
 317:Drivers/STM32WBxx_HAL_Driver/Src/stm32wbxx_ll_usb.c ****     PCD_SET_EP_DBUF_ADDR(USBx, ep->num, ep->pmaaddr0, ep->pmaaddr1);
 722              		.loc 1 317 5 view .LVU230
 723              		.loc 1 317 5 view .LVU231
 724              		.loc 1 317 5 view .LVU232
 725              	.LBB18:
 726              		.loc 1 317 5 view .LVU233
 727              		.loc 1 317 5 view .LVU234
 728              		.loc 1 317 5 view .LVU235
 729 0254 B3F85020 		ldrh	r2, [r3, #80]
 730 0258 13FA82F2 		uxtah	r2, r3, r2
 731              	.LVL74:
 732              		.loc 1 317 5 view .LVU236
 733 025c 91F800C0 		ldrb	ip, [r1]	@ zero_extendqisi2
 734 0260 02EBCC02 		add	r2, r2, ip, lsl #3
 735              	.LVL75:
 736              		.loc 1 317 5 view .LVU237
 737 0264 B1F808C0 		ldrh	ip, [r1, #8]
 738 0268 4FEA5C0C 		lsr	ip, ip, #1
 739 026c 4FEA4C0C 		lsl	ip, ip, #1
 740 0270 A2F800C4 		strh	ip, [r2, #1024]	@ movhi
 741              	.LBE18:
 742              		.loc 1 317 5 view .LVU238
 743              		.loc 1 317 5 view .LVU239
 744              		.loc 1 317 5 view .LVU240
 745              		.loc 1 317 5 view .LVU241
 746              	.LBB19:
 747              		.loc 1 317 5 view .LVU242
 748              		.loc 1 317 5 view .LVU243
 749              	.LVL76:
 750              		.loc 1 317 5 view .LVU244
 751 0274 B3F85020 		ldrh	r2, [r3, #80]
 752              	.LVL77:
 753              		.loc 1 317 5 is_stmt 0 view .LVU245
ARM GAS  C:\Users\Nathan\AppData\Local\Temp\ccuhR5Xd.s 			page 20


 754 0278 13FA82F2 		uxtah	r2, r3, r2
 755              	.LVL78:
 756              		.loc 1 317 5 is_stmt 1 view .LVU246
 757 027c 91F800C0 		ldrb	ip, [r1]	@ zero_extendqisi2
 758 0280 02EBCC02 		add	r2, r2, ip, lsl #3
 759              	.LVL79:
 760              		.loc 1 317 5 view .LVU247
 761 0284 B1F80AC0 		ldrh	ip, [r1, #10]
 762 0288 4FEA5C0C 		lsr	ip, ip, #1
 763 028c 4FEA4C0C 		lsl	ip, ip, #1
 764 0290 A2F804C4 		strh	ip, [r2, #1028]	@ movhi
 765              	.LBE19:
 766              		.loc 1 317 5 view .LVU248
 767              		.loc 1 317 5 view .LVU249
 768              		.loc 1 317 5 view .LVU250
 318:Drivers/STM32WBxx_HAL_Driver/Src/stm32wbxx_ll_usb.c **** 
 319:Drivers/STM32WBxx_HAL_Driver/Src/stm32wbxx_ll_usb.c ****     if (ep->is_in == 0U)
 769              		.loc 1 319 5 view .LVU251
 770              		.loc 1 319 11 is_stmt 0 view .LVU252
 771 0294 4A78     		ldrb	r2, [r1, #1]	@ zero_extendqisi2
 772              	.LVL80:
 773              		.loc 1 319 8 view .LVU253
 774 0296 002A     		cmp	r2, #0
 775 0298 40F01081 		bne	.L30
 320:Drivers/STM32WBxx_HAL_Driver/Src/stm32wbxx_ll_usb.c ****     {
 321:Drivers/STM32WBxx_HAL_Driver/Src/stm32wbxx_ll_usb.c ****       /* Clear the data toggle bits for the endpoint IN/OUT */
 322:Drivers/STM32WBxx_HAL_Driver/Src/stm32wbxx_ll_usb.c ****       PCD_CLEAR_RX_DTOG(USBx, ep->num);
 776              		.loc 1 322 7 is_stmt 1 view .LVU254
 777              	.LBB20:
 778              		.loc 1 322 7 view .LVU255
 779              		.loc 1 322 7 view .LVU256
 780 029c 91F800C0 		ldrb	ip, [r1]	@ zero_extendqisi2
 781 02a0 33F82C20 		ldrh	r2, [r3, ip, lsl #2]
 782              	.LVL81:
 783              		.loc 1 322 7 view .LVU257
 784 02a4 12F4804F 		tst	r2, #16384
 785 02a8 0CD0     		beq	.L31
 786              		.loc 1 322 7 discriminator 1 view .LVU258
 787              	.LBB21:
 788              		.loc 1 322 7 discriminator 1 view .LVU259
 789              		.loc 1 322 7 discriminator 1 view .LVU260
 790 02aa 33F82C20 		ldrh	r2, [r3, ip, lsl #2]
 791              	.LVL82:
 792              		.loc 1 322 7 is_stmt 0 discriminator 1 view .LVU261
 793 02ae 92B2     		uxth	r2, r2
 794 02b0 22F4E042 		bic	r2, r2, #28672
 795 02b4 22F07002 		bic	r2, r2, #112
 796              	.LVL83:
 797              		.loc 1 322 7 is_stmt 1 view .LVU262
 798              		.loc 1 322 7 is_stmt 0 discriminator 1 view .LVU263
 799 02b8 42F44042 		orr	r2, r2, #49152
 800              	.LVL84:
 801              		.loc 1 322 7 discriminator 1 view .LVU264
 802 02bc 42F08002 		orr	r2, r2, #128
 803 02c0 23F82C20 		strh	r2, [r3, ip, lsl #2]	@ movhi
 804              	.LVL85:
 805              	.L31:
ARM GAS  C:\Users\Nathan\AppData\Local\Temp\ccuhR5Xd.s 			page 21


 806              		.loc 1 322 7 discriminator 1 view .LVU265
 807              	.LBE21:
 808              		.loc 1 322 7 is_stmt 1 view .LVU266
 809              	.LBE20:
 810              		.loc 1 322 7 view .LVU267
 323:Drivers/STM32WBxx_HAL_Driver/Src/stm32wbxx_ll_usb.c ****       PCD_CLEAR_TX_DTOG(USBx, ep->num);
 811              		.loc 1 323 7 view .LVU268
 812              	.LBB22:
 813              		.loc 1 323 7 view .LVU269
 814              		.loc 1 323 7 view .LVU270
 815 02c4 91F800C0 		ldrb	ip, [r1]	@ zero_extendqisi2
 816 02c8 33F82C20 		ldrh	r2, [r3, ip, lsl #2]
 817              	.LVL86:
 818              		.loc 1 323 7 view .LVU271
 819 02cc 12F0400F 		tst	r2, #64
 820 02d0 0CD0     		beq	.L32
 821              		.loc 1 323 7 discriminator 1 view .LVU272
 822              	.LBB23:
 823              		.loc 1 323 7 discriminator 1 view .LVU273
 824              		.loc 1 323 7 discriminator 1 view .LVU274
 825 02d2 33F82C20 		ldrh	r2, [r3, ip, lsl #2]
 826              	.LVL87:
 827              		.loc 1 323 7 is_stmt 0 discriminator 1 view .LVU275
 828 02d6 92B2     		uxth	r2, r2
 829 02d8 22F4E042 		bic	r2, r2, #28672
 830 02dc 22F07002 		bic	r2, r2, #112
 831              	.LVL88:
 832              		.loc 1 323 7 is_stmt 1 view .LVU276
 833              		.loc 1 323 7 is_stmt 0 discriminator 1 view .LVU277
 834 02e0 42F40042 		orr	r2, r2, #32768
 835              	.LVL89:
 836              		.loc 1 323 7 discriminator 1 view .LVU278
 837 02e4 42F0C002 		orr	r2, r2, #192
 838 02e8 23F82C20 		strh	r2, [r3, ip, lsl #2]	@ movhi
 839              	.LVL90:
 840              	.L32:
 841              		.loc 1 323 7 discriminator 1 view .LVU279
 842              	.LBE23:
 843              		.loc 1 323 7 is_stmt 1 view .LVU280
 844              	.LBE22:
 845              		.loc 1 323 7 view .LVU281
 324:Drivers/STM32WBxx_HAL_Driver/Src/stm32wbxx_ll_usb.c **** 
 325:Drivers/STM32WBxx_HAL_Driver/Src/stm32wbxx_ll_usb.c ****       /* Set endpoint RX count */
 326:Drivers/STM32WBxx_HAL_Driver/Src/stm32wbxx_ll_usb.c ****       PCD_SET_EP_DBUF_CNT(USBx, ep->num, ep->is_in, ep->maxpacket);
 846              		.loc 1 326 7 view .LVU282
 847              		.loc 1 326 7 view .LVU283
 848              		.loc 1 326 7 view .LVU284
 849 02ec 4A78     		ldrb	r2, [r1, #1]	@ zero_extendqisi2
 850 02ee 002A     		cmp	r2, #0
 851 02f0 5AD1     		bne	.L33
 852              		.loc 1 326 7 discriminator 1 view .LVU285
 853              	.LBB24:
 854              		.loc 1 326 7 discriminator 1 view .LVU286
 855              	.LVL91:
 856              		.loc 1 326 7 view .LVU287
 857              		.loc 1 326 7 view .LVU288
 858              		.loc 1 326 7 is_stmt 0 discriminator 1 view .LVU289
ARM GAS  C:\Users\Nathan\AppData\Local\Temp\ccuhR5Xd.s 			page 22


 859 02f2 B3F85020 		ldrh	r2, [r3, #80]
 860 02f6 13FA82F2 		uxtah	r2, r3, r2
 861              	.LVL92:
 862              		.loc 1 326 7 is_stmt 1 view .LVU290
 863              		.loc 1 326 7 is_stmt 0 discriminator 1 view .LVU291
 864 02fa 91F800C0 		ldrb	ip, [r1]	@ zero_extendqisi2
 865 02fe 02EBCC02 		add	r2, r2, ip, lsl #3
 866              	.LVL93:
 867              		.loc 1 326 7 is_stmt 1 view .LVU292
 868              	.LBB25:
 869              		.loc 1 326 7 view .LVU293
 870              		.loc 1 326 7 view .LVU294
 871              		.loc 1 326 7 is_stmt 0 discriminator 1 view .LVU295
 872 0302 B2F802C4 		ldrh	ip, [r2, #1026]
 873 0306 CCF3090C 		ubfx	ip, ip, #0, #10
 874 030a A2F802C4 		strh	ip, [r2, #1026]	@ movhi
 875              		.loc 1 326 7 is_stmt 1 view .LVU296
 876              		.loc 1 326 7 is_stmt 0 discriminator 1 view .LVU297
 877 030e D1F810C0 		ldr	ip, [r1, #16]
 878 0312 BCF1000F 		cmp	ip, #0
 879 0316 1AD1     		bne	.L34
 880              		.loc 1 326 7 is_stmt 1 discriminator 3 view .LVU298
 881 0318 B2F802C4 		ldrh	ip, [r2, #1026]
 882 031c 6FEA4C4C 		mvn	ip, ip, lsl #17
 883 0320 6FEA5C4C 		mvn	ip, ip, lsr #17
 884 0324 1FFA8CFC 		uxth	ip, ip
 885 0328 A2F802C4 		strh	ip, [r2, #1026]	@ movhi
 886 032c 3EE0     		b	.L35
 887              	.LVL94:
 888              	.L53:
 889              		.loc 1 326 7 is_stmt 0 discriminator 3 view .LVU299
 890              	.LBE25:
 891              	.LBE24:
 308:Drivers/STM32WBxx_HAL_Driver/Src/stm32wbxx_ll_usb.c ****     }
 892              		.loc 1 308 7 is_stmt 1 view .LVU300
 893              	.LBB27:
 308:Drivers/STM32WBxx_HAL_Driver/Src/stm32wbxx_ll_usb.c ****     }
 894              		.loc 1 308 7 view .LVU301
 308:Drivers/STM32WBxx_HAL_Driver/Src/stm32wbxx_ll_usb.c ****     }
 895              		.loc 1 308 7 view .LVU302
 896 032e 91F800C0 		ldrb	ip, [r1]	@ zero_extendqisi2
 308:Drivers/STM32WBxx_HAL_Driver/Src/stm32wbxx_ll_usb.c ****     }
 897              		.loc 1 308 7 is_stmt 0 view .LVU303
 898 0332 33F82C20 		ldrh	r2, [r3, ip, lsl #2]
 899 0336 92B2     		uxth	r2, r2
 900 0338 22F4E042 		bic	r2, r2, #28672
 901 033c 22F07002 		bic	r2, r2, #112
 902              	.LVL95:
 308:Drivers/STM32WBxx_HAL_Driver/Src/stm32wbxx_ll_usb.c ****     }
 903              		.loc 1 308 7 is_stmt 1 view .LVU304
 904 0340 42F40142 		orr	r2, r2, #33024
 905              	.LVL96:
 308:Drivers/STM32WBxx_HAL_Driver/Src/stm32wbxx_ll_usb.c ****     }
 906              		.loc 1 308 7 is_stmt 0 view .LVU305
 907 0344 42F08002 		orr	r2, r2, #128
 908 0348 23F82C20 		strh	r2, [r3, ip, lsl #2]	@ movhi
 909              	.LBE27:
ARM GAS  C:\Users\Nathan\AppData\Local\Temp\ccuhR5Xd.s 			page 23


 308:Drivers/STM32WBxx_HAL_Driver/Src/stm32wbxx_ll_usb.c ****     }
 910              		.loc 1 308 7 is_stmt 1 view .LVU306
 911 034c 82E7     		b	.L29
 912              	.LVL97:
 913              	.L34:
 914              	.LBB28:
 915              	.LBB26:
 916              		.loc 1 326 7 discriminator 4 view .LVU307
 917 034e BCF13E0F 		cmp	ip, #62
 918 0352 13D8     		bhi	.L36
 919              		.loc 1 326 7 discriminator 5 view .LVU308
 920              		.loc 1 326 7 discriminator 5 view .LVU309
 921 0354 4FEA5C0E 		lsr	lr, ip, #1
 922              	.LVL98:
 923              		.loc 1 326 7 view .LVU310
 924              		.loc 1 326 7 is_stmt 0 discriminator 5 view .LVU311
 925 0358 1CF0010F 		tst	ip, #1
 926 035c 01D0     		beq	.L37
 927              		.loc 1 326 7 is_stmt 1 discriminator 7 view .LVU312
 928 035e 0EF1010E 		add	lr, lr, #1
 929              	.LVL99:
 930              	.L37:
 931              		.loc 1 326 7 discriminator 9 view .LVU313
 932 0362 B2F802C4 		ldrh	ip, [r2, #1026]
 933 0366 1FFA8CFC 		uxth	ip, ip
 934 036a 4FEA8E2E 		lsl	lr, lr, #10
 935              	.LVL100:
 936              		.loc 1 326 7 is_stmt 0 discriminator 9 view .LVU314
 937 036e 1FFA8EFE 		uxth	lr, lr
 938 0372 4CEA0E0C 		orr	ip, ip, lr
 939 0376 A2F802C4 		strh	ip, [r2, #1026]	@ movhi
 940              		.loc 1 326 7 is_stmt 1 view .LVU315
 941 037a 17E0     		b	.L35
 942              	.LVL101:
 943              	.L36:
 944              		.loc 1 326 7 discriminator 6 view .LVU316
 945              		.loc 1 326 7 discriminator 6 view .LVU317
 946 037c 4FEA5C1E 		lsr	lr, ip, #5
 947              	.LVL102:
 948              		.loc 1 326 7 view .LVU318
 949              		.loc 1 326 7 is_stmt 0 discriminator 6 view .LVU319
 950 0380 1CF01F0F 		tst	ip, #31
 951 0384 01D1     		bne	.L38
 952              		.loc 1 326 7 is_stmt 1 discriminator 10 view .LVU320
 953 0386 0EF1FF3E 		add	lr, lr, #-1
 954              	.LVL103:
 955              	.L38:
 956              		.loc 1 326 7 discriminator 12 view .LVU321
 957 038a B2F802C4 		ldrh	ip, [r2, #1026]
 958 038e 1FFA8CFC 		uxth	ip, ip
 959 0392 4FEA8E2E 		lsl	lr, lr, #10
 960              	.LVL104:
 961              		.loc 1 326 7 is_stmt 0 discriminator 12 view .LVU322
 962 0396 1FFA8EFE 		uxth	lr, lr
 963 039a 4CEA0E0C 		orr	ip, ip, lr
 964 039e 4CF4004C 		orr	ip, ip, #32768
 965 03a2 A2F802C4 		strh	ip, [r2, #1026]	@ movhi
ARM GAS  C:\Users\Nathan\AppData\Local\Temp\ccuhR5Xd.s 			page 24


 966 03a6 01E0     		b	.L35
 967              	.LVL105:
 968              	.L33:
 969              		.loc 1 326 7 discriminator 12 view .LVU323
 970              	.LBE26:
 971              	.LBE28:
 972              		.loc 1 326 7 is_stmt 1 discriminator 2 view .LVU324
 973 03a8 012A     		cmp	r2, #1
 974 03aa 20D0     		beq	.L54
 975              	.L35:
 976              		.loc 1 326 7 discriminator 15 view .LVU325
 977              		.loc 1 326 7 discriminator 15 view .LVU326
 978              		.loc 1 326 7 discriminator 15 view .LVU327
 979              	.LBB29:
 980              		.loc 1 326 7 discriminator 15 view .LVU328
 981              	.LVL106:
 982              		.loc 1 326 7 view .LVU329
 983              		.loc 1 326 7 view .LVU330
 984              		.loc 1 326 7 is_stmt 0 discriminator 15 view .LVU331
 985 03ac 4A78     		ldrb	r2, [r1, #1]	@ zero_extendqisi2
 986 03ae 002A     		cmp	r2, #0
 987 03b0 57D1     		bne	.L39
 988              		.loc 1 326 7 is_stmt 1 discriminator 16 view .LVU332
 989              	.LBB30:
 990              		.loc 1 326 7 discriminator 16 view .LVU333
 991              	.LVL107:
 992              		.loc 1 326 7 view .LVU334
 993              		.loc 1 326 7 view .LVU335
 994              		.loc 1 326 7 is_stmt 0 discriminator 16 view .LVU336
 995 03b2 B3F85020 		ldrh	r2, [r3, #80]
 996 03b6 13FA82F2 		uxtah	r2, r3, r2
 997              	.LVL108:
 998              		.loc 1 326 7 is_stmt 1 view .LVU337
 999              		.loc 1 326 7 is_stmt 0 discriminator 16 view .LVU338
 1000 03ba 91F800C0 		ldrb	ip, [r1]	@ zero_extendqisi2
 1001 03be 02EBCC02 		add	r2, r2, ip, lsl #3
 1002              	.LVL109:
 1003              		.loc 1 326 7 is_stmt 1 view .LVU339
 1004              	.LBB31:
 1005              		.loc 1 326 7 view .LVU340
 1006              		.loc 1 326 7 view .LVU341
 1007              		.loc 1 326 7 is_stmt 0 discriminator 16 view .LVU342
 1008 03c2 B2F806C4 		ldrh	ip, [r2, #1030]
 1009 03c6 CCF3090C 		ubfx	ip, ip, #0, #10
 1010 03ca A2F806C4 		strh	ip, [r2, #1030]	@ movhi
 1011              		.loc 1 326 7 is_stmt 1 view .LVU343
 1012              		.loc 1 326 7 is_stmt 0 discriminator 16 view .LVU344
 1013 03ce D1F810C0 		ldr	ip, [r1, #16]
 1014 03d2 BCF1000F 		cmp	ip, #0
 1015 03d6 17D1     		bne	.L40
 1016              		.loc 1 326 7 is_stmt 1 discriminator 18 view .LVU345
 1017 03d8 B2F806C4 		ldrh	ip, [r2, #1030]
 1018 03dc 6FEA4C4C 		mvn	ip, ip, lsl #17
 1019 03e0 6FEA5C4C 		mvn	ip, ip, lsr #17
 1020 03e4 1FFA8CFC 		uxth	ip, ip
 1021 03e8 A2F806C4 		strh	ip, [r2, #1030]	@ movhi
 1022 03ec 3BE0     		b	.L41
ARM GAS  C:\Users\Nathan\AppData\Local\Temp\ccuhR5Xd.s 			page 25


 1023              	.LVL110:
 1024              	.L54:
 1025              		.loc 1 326 7 is_stmt 0 discriminator 18 view .LVU346
 1026              	.LBE31:
 1027              	.LBE30:
 1028              	.LBE29:
 1029              		.loc 1 326 7 is_stmt 1 discriminator 13 view .LVU347
 1030              	.LBB34:
 1031              		.loc 1 326 7 discriminator 13 view .LVU348
 1032              		.loc 1 326 7 view .LVU349
 1033              		.loc 1 326 7 view .LVU350
 1034              		.loc 1 326 7 is_stmt 0 discriminator 13 view .LVU351
 1035 03ee B3F85020 		ldrh	r2, [r3, #80]
 1036 03f2 13FA82F2 		uxtah	r2, r3, r2
 1037              	.LVL111:
 1038              		.loc 1 326 7 is_stmt 1 view .LVU352
 1039              		.loc 1 326 7 is_stmt 0 discriminator 13 view .LVU353
 1040 03f6 91F800C0 		ldrb	ip, [r1]	@ zero_extendqisi2
 1041 03fa 02EBCC02 		add	r2, r2, ip, lsl #3
 1042              	.LVL112:
 1043              		.loc 1 326 7 is_stmt 1 view .LVU354
 1044              		.loc 1 326 7 is_stmt 0 discriminator 13 view .LVU355
 1045 03fe B1F810C0 		ldrh	ip, [r1, #16]
 1046 0402 A2F802C4 		strh	ip, [r2, #1026]	@ movhi
 1047 0406 D1E7     		b	.L35
 1048              	.LVL113:
 1049              	.L40:
 1050              		.loc 1 326 7 discriminator 13 view .LVU356
 1051              	.LBE34:
 1052              	.LBB35:
 1053              	.LBB33:
 1054              	.LBB32:
 1055              		.loc 1 326 7 is_stmt 1 discriminator 19 view .LVU357
 1056 0408 BCF13E0F 		cmp	ip, #62
 1057 040c 13D8     		bhi	.L42
 1058              		.loc 1 326 7 discriminator 20 view .LVU358
 1059              		.loc 1 326 7 discriminator 20 view .LVU359
 1060 040e 4FEA5C0E 		lsr	lr, ip, #1
 1061              	.LVL114:
 1062              		.loc 1 326 7 view .LVU360
 1063              		.loc 1 326 7 is_stmt 0 discriminator 20 view .LVU361
 1064 0412 1CF0010F 		tst	ip, #1
 1065 0416 01D0     		beq	.L43
 1066              		.loc 1 326 7 is_stmt 1 discriminator 22 view .LVU362
 1067 0418 0EF1010E 		add	lr, lr, #1
 1068              	.LVL115:
 1069              	.L43:
 1070              		.loc 1 326 7 discriminator 24 view .LVU363
 1071 041c B2F806C4 		ldrh	ip, [r2, #1030]
 1072 0420 1FFA8CFC 		uxth	ip, ip
 1073 0424 4FEA8E2E 		lsl	lr, lr, #10
 1074              	.LVL116:
 1075              		.loc 1 326 7 is_stmt 0 discriminator 24 view .LVU364
 1076 0428 1FFA8EFE 		uxth	lr, lr
 1077 042c 4CEA0E0C 		orr	ip, ip, lr
 1078 0430 A2F806C4 		strh	ip, [r2, #1030]	@ movhi
 1079              		.loc 1 326 7 is_stmt 1 view .LVU365
ARM GAS  C:\Users\Nathan\AppData\Local\Temp\ccuhR5Xd.s 			page 26


 1080 0434 17E0     		b	.L41
 1081              	.LVL117:
 1082              	.L42:
 1083              		.loc 1 326 7 discriminator 21 view .LVU366
 1084              		.loc 1 326 7 discriminator 21 view .LVU367
 1085 0436 4FEA5C1E 		lsr	lr, ip, #5
 1086              	.LVL118:
 1087              		.loc 1 326 7 view .LVU368
 1088              		.loc 1 326 7 is_stmt 0 discriminator 21 view .LVU369
 1089 043a 1CF01F0F 		tst	ip, #31
 1090 043e 01D1     		bne	.L44
 1091              		.loc 1 326 7 is_stmt 1 discriminator 25 view .LVU370
 1092 0440 0EF1FF3E 		add	lr, lr, #-1
 1093              	.LVL119:
 1094              	.L44:
 1095              		.loc 1 326 7 discriminator 27 view .LVU371
 1096 0444 B2F806C4 		ldrh	ip, [r2, #1030]
 1097 0448 1FFA8CFC 		uxth	ip, ip
 1098 044c 4FEA8E2E 		lsl	lr, lr, #10
 1099              	.LVL120:
 1100              		.loc 1 326 7 is_stmt 0 discriminator 27 view .LVU372
 1101 0450 1FFA8EFE 		uxth	lr, lr
 1102 0454 4CEA0E0C 		orr	ip, ip, lr
 1103 0458 4CF4004C 		orr	ip, ip, #32768
 1104 045c A2F806C4 		strh	ip, [r2, #1030]	@ movhi
 1105 0460 01E0     		b	.L41
 1106              	.LVL121:
 1107              	.L39:
 1108              		.loc 1 326 7 discriminator 27 view .LVU373
 1109              	.LBE32:
 1110              	.LBE33:
 1111              		.loc 1 326 7 is_stmt 1 discriminator 17 view .LVU374
 1112 0462 012A     		cmp	r2, #1
 1113 0464 1DD0     		beq	.L55
 1114              	.LVL122:
 1115              	.L41:
 1116              		.loc 1 326 7 is_stmt 0 discriminator 17 view .LVU375
 1117              	.LBE35:
 1118              		.loc 1 326 7 is_stmt 1 view .LVU376
 1119              		.loc 1 326 7 view .LVU377
 327:Drivers/STM32WBxx_HAL_Driver/Src/stm32wbxx_ll_usb.c **** 
 328:Drivers/STM32WBxx_HAL_Driver/Src/stm32wbxx_ll_usb.c ****       /* Set endpoint RX to valid state */
 329:Drivers/STM32WBxx_HAL_Driver/Src/stm32wbxx_ll_usb.c ****       PCD_SET_EP_RX_STATUS(USBx, ep->num, USB_EP_RX_VALID);
 1120              		.loc 1 329 7 view .LVU378
 1121              	.LBB36:
 1122              		.loc 1 329 7 view .LVU379
 1123              		.loc 1 329 7 view .LVU380
 1124 0466 91F800E0 		ldrb	lr, [r1]	@ zero_extendqisi2
 1125 046a 33F82E20 		ldrh	r2, [r3, lr, lsl #2]
 1126 046e 92B2     		uxth	r2, r2
 1127 0470 22F48042 		bic	r2, r2, #16384
 1128 0474 22F07002 		bic	r2, r2, #112
 1129              		.loc 1 329 7 view .LVU381
 1130              		.loc 1 329 7 discriminator 1 view .LVU382
 1131              	.LVL123:
 1132              		.loc 1 329 7 discriminator 3 view .LVU383
 1133              		.loc 1 329 7 discriminator 4 view .LVU384
ARM GAS  C:\Users\Nathan\AppData\Local\Temp\ccuhR5Xd.s 			page 27


 1134 0478 82F44052 		eor	r2, r2, #12288
 1135              	.LVL124:
 1136              		.loc 1 329 7 discriminator 6 view .LVU385
 1137 047c 48F2800C 		movw	ip, #32896
 1138 0480 42EA0C02 		orr	r2, r2, ip
 1139              	.LVL125:
 1140              		.loc 1 329 7 is_stmt 0 discriminator 6 view .LVU386
 1141 0484 23F82E20 		strh	r2, [r3, lr, lsl #2]	@ movhi
 1142              	.LBE36:
 1143              		.loc 1 329 7 is_stmt 1 view .LVU387
 330:Drivers/STM32WBxx_HAL_Driver/Src/stm32wbxx_ll_usb.c ****       PCD_SET_EP_TX_STATUS(USBx, ep->num, USB_EP_TX_DIS);
 1144              		.loc 1 330 7 view .LVU388
 1145              	.LBB37:
 1146              		.loc 1 330 7 view .LVU389
 1147              		.loc 1 330 7 view .LVU390
 1148 0488 0978     		ldrb	r1, [r1]	@ zero_extendqisi2
 1149              	.LVL126:
 1150              		.loc 1 330 7 is_stmt 0 view .LVU391
 1151 048a 33F82120 		ldrh	r2, [r3, r1, lsl #2]
 1152 048e 92B2     		uxth	r2, r2
 1153 0490 22F4E042 		bic	r2, r2, #28672
 1154 0494 22F04002 		bic	r2, r2, #64
 1155              	.LVL127:
 1156              		.loc 1 330 7 is_stmt 1 view .LVU392
 1157              		.loc 1 330 7 discriminator 3 view .LVU393
 1158              		.loc 1 330 7 discriminator 6 view .LVU394
 1159 0498 42EA0C02 		orr	r2, r2, ip
 1160              	.LVL128:
 1161              		.loc 1 330 7 is_stmt 0 discriminator 6 view .LVU395
 1162 049c 23F82120 		strh	r2, [r3, r1, lsl #2]	@ movhi
 1163              	.LBE37:
 1164              		.loc 1 330 7 is_stmt 1 view .LVU396
 1165              	.LVL129:
 1166              	.L20:
 331:Drivers/STM32WBxx_HAL_Driver/Src/stm32wbxx_ll_usb.c ****     }
 332:Drivers/STM32WBxx_HAL_Driver/Src/stm32wbxx_ll_usb.c ****     else
 333:Drivers/STM32WBxx_HAL_Driver/Src/stm32wbxx_ll_usb.c ****     {
 334:Drivers/STM32WBxx_HAL_Driver/Src/stm32wbxx_ll_usb.c ****       /* Clear the data toggle bits for the endpoint IN/OUT */
 335:Drivers/STM32WBxx_HAL_Driver/Src/stm32wbxx_ll_usb.c ****       PCD_CLEAR_RX_DTOG(USBx, ep->num);
 336:Drivers/STM32WBxx_HAL_Driver/Src/stm32wbxx_ll_usb.c ****       PCD_CLEAR_TX_DTOG(USBx, ep->num);
 337:Drivers/STM32WBxx_HAL_Driver/Src/stm32wbxx_ll_usb.c **** 
 338:Drivers/STM32WBxx_HAL_Driver/Src/stm32wbxx_ll_usb.c ****       if (ep->type != EP_TYPE_ISOC)
 339:Drivers/STM32WBxx_HAL_Driver/Src/stm32wbxx_ll_usb.c ****       {
 340:Drivers/STM32WBxx_HAL_Driver/Src/stm32wbxx_ll_usb.c ****         /* Configure NAK status for the Endpoint */
 341:Drivers/STM32WBxx_HAL_Driver/Src/stm32wbxx_ll_usb.c ****         PCD_SET_EP_TX_STATUS(USBx, ep->num, USB_EP_TX_NAK);
 342:Drivers/STM32WBxx_HAL_Driver/Src/stm32wbxx_ll_usb.c ****       }
 343:Drivers/STM32WBxx_HAL_Driver/Src/stm32wbxx_ll_usb.c ****       else
 344:Drivers/STM32WBxx_HAL_Driver/Src/stm32wbxx_ll_usb.c ****       {
 345:Drivers/STM32WBxx_HAL_Driver/Src/stm32wbxx_ll_usb.c ****         /* Configure TX Endpoint to disabled state */
 346:Drivers/STM32WBxx_HAL_Driver/Src/stm32wbxx_ll_usb.c ****         PCD_SET_EP_TX_STATUS(USBx, ep->num, USB_EP_TX_DIS);
 347:Drivers/STM32WBxx_HAL_Driver/Src/stm32wbxx_ll_usb.c ****       }
 348:Drivers/STM32WBxx_HAL_Driver/Src/stm32wbxx_ll_usb.c **** 
 349:Drivers/STM32WBxx_HAL_Driver/Src/stm32wbxx_ll_usb.c ****       PCD_SET_EP_RX_STATUS(USBx, ep->num, USB_EP_RX_DIS);
 1167              		.loc 1 349 7 view .LVU397
 350:Drivers/STM32WBxx_HAL_Driver/Src/stm32wbxx_ll_usb.c ****     }
 351:Drivers/STM32WBxx_HAL_Driver/Src/stm32wbxx_ll_usb.c ****   }
 352:Drivers/STM32WBxx_HAL_Driver/Src/stm32wbxx_ll_usb.c **** #endif /* (USE_USB_DOUBLE_BUFFER == 1U) */
ARM GAS  C:\Users\Nathan\AppData\Local\Temp\ccuhR5Xd.s 			page 28


 353:Drivers/STM32WBxx_HAL_Driver/Src/stm32wbxx_ll_usb.c **** 
 354:Drivers/STM32WBxx_HAL_Driver/Src/stm32wbxx_ll_usb.c ****   return ret;
 1168              		.loc 1 354 3 view .LVU398
 355:Drivers/STM32WBxx_HAL_Driver/Src/stm32wbxx_ll_usb.c **** }
 1169              		.loc 1 355 1 is_stmt 0 view .LVU399
 1170 04a0 00BD     		pop	{pc}
 1171              	.LVL130:
 1172              	.L55:
 1173              	.LBB38:
 326:Drivers/STM32WBxx_HAL_Driver/Src/stm32wbxx_ll_usb.c **** 
 1174              		.loc 1 326 7 is_stmt 1 discriminator 28 view .LVU400
 1175 04a2 B3F85020 		ldrh	r2, [r3, #80]
 1176 04a6 13FA82F2 		uxtah	r2, r3, r2
 1177              	.LVL131:
 326:Drivers/STM32WBxx_HAL_Driver/Src/stm32wbxx_ll_usb.c **** 
 1178              		.loc 1 326 7 view .LVU401
 326:Drivers/STM32WBxx_HAL_Driver/Src/stm32wbxx_ll_usb.c **** 
 1179              		.loc 1 326 7 is_stmt 0 discriminator 28 view .LVU402
 1180 04aa 91F800C0 		ldrb	ip, [r1]	@ zero_extendqisi2
 1181 04ae 02EBCC02 		add	r2, r2, ip, lsl #3
 1182              	.LVL132:
 326:Drivers/STM32WBxx_HAL_Driver/Src/stm32wbxx_ll_usb.c **** 
 1183              		.loc 1 326 7 is_stmt 1 view .LVU403
 326:Drivers/STM32WBxx_HAL_Driver/Src/stm32wbxx_ll_usb.c **** 
 1184              		.loc 1 326 7 is_stmt 0 discriminator 28 view .LVU404
 1185 04b2 B1F810C0 		ldrh	ip, [r1, #16]
 1186 04b6 A2F806C4 		strh	ip, [r2, #1030]	@ movhi
 1187 04ba D4E7     		b	.L41
 1188              	.LVL133:
 1189              	.L30:
 326:Drivers/STM32WBxx_HAL_Driver/Src/stm32wbxx_ll_usb.c **** 
 1190              		.loc 1 326 7 discriminator 28 view .LVU405
 1191              	.LBE38:
 335:Drivers/STM32WBxx_HAL_Driver/Src/stm32wbxx_ll_usb.c ****       PCD_CLEAR_TX_DTOG(USBx, ep->num);
 1192              		.loc 1 335 7 is_stmt 1 view .LVU406
 1193              	.LBB39:
 335:Drivers/STM32WBxx_HAL_Driver/Src/stm32wbxx_ll_usb.c ****       PCD_CLEAR_TX_DTOG(USBx, ep->num);
 1194              		.loc 1 335 7 view .LVU407
 335:Drivers/STM32WBxx_HAL_Driver/Src/stm32wbxx_ll_usb.c ****       PCD_CLEAR_TX_DTOG(USBx, ep->num);
 1195              		.loc 1 335 7 view .LVU408
 1196 04bc 91F800C0 		ldrb	ip, [r1]	@ zero_extendqisi2
 1197 04c0 33F82C20 		ldrh	r2, [r3, ip, lsl #2]
 1198              	.LVL134:
 335:Drivers/STM32WBxx_HAL_Driver/Src/stm32wbxx_ll_usb.c ****       PCD_CLEAR_TX_DTOG(USBx, ep->num);
 1199              		.loc 1 335 7 view .LVU409
 1200 04c4 12F4804F 		tst	r2, #16384
 1201 04c8 0CD0     		beq	.L45
 335:Drivers/STM32WBxx_HAL_Driver/Src/stm32wbxx_ll_usb.c ****       PCD_CLEAR_TX_DTOG(USBx, ep->num);
 1202              		.loc 1 335 7 discriminator 1 view .LVU410
 1203              	.LBB40:
 335:Drivers/STM32WBxx_HAL_Driver/Src/stm32wbxx_ll_usb.c ****       PCD_CLEAR_TX_DTOG(USBx, ep->num);
 1204              		.loc 1 335 7 discriminator 1 view .LVU411
 335:Drivers/STM32WBxx_HAL_Driver/Src/stm32wbxx_ll_usb.c ****       PCD_CLEAR_TX_DTOG(USBx, ep->num);
 1205              		.loc 1 335 7 discriminator 1 view .LVU412
 1206 04ca 33F82C20 		ldrh	r2, [r3, ip, lsl #2]
 1207              	.LVL135:
 335:Drivers/STM32WBxx_HAL_Driver/Src/stm32wbxx_ll_usb.c ****       PCD_CLEAR_TX_DTOG(USBx, ep->num);
ARM GAS  C:\Users\Nathan\AppData\Local\Temp\ccuhR5Xd.s 			page 29


 1208              		.loc 1 335 7 is_stmt 0 discriminator 1 view .LVU413
 1209 04ce 92B2     		uxth	r2, r2
 1210 04d0 22F4E042 		bic	r2, r2, #28672
 1211 04d4 22F07002 		bic	r2, r2, #112
 1212              	.LVL136:
 335:Drivers/STM32WBxx_HAL_Driver/Src/stm32wbxx_ll_usb.c ****       PCD_CLEAR_TX_DTOG(USBx, ep->num);
 1213              		.loc 1 335 7 is_stmt 1 view .LVU414
 335:Drivers/STM32WBxx_HAL_Driver/Src/stm32wbxx_ll_usb.c ****       PCD_CLEAR_TX_DTOG(USBx, ep->num);
 1214              		.loc 1 335 7 is_stmt 0 discriminator 1 view .LVU415
 1215 04d8 42F44042 		orr	r2, r2, #49152
 1216              	.LVL137:
 335:Drivers/STM32WBxx_HAL_Driver/Src/stm32wbxx_ll_usb.c ****       PCD_CLEAR_TX_DTOG(USBx, ep->num);
 1217              		.loc 1 335 7 discriminator 1 view .LVU416
 1218 04dc 42F08002 		orr	r2, r2, #128
 1219 04e0 23F82C20 		strh	r2, [r3, ip, lsl #2]	@ movhi
 1220              	.LVL138:
 1221              	.L45:
 335:Drivers/STM32WBxx_HAL_Driver/Src/stm32wbxx_ll_usb.c ****       PCD_CLEAR_TX_DTOG(USBx, ep->num);
 1222              		.loc 1 335 7 discriminator 1 view .LVU417
 1223              	.LBE40:
 335:Drivers/STM32WBxx_HAL_Driver/Src/stm32wbxx_ll_usb.c ****       PCD_CLEAR_TX_DTOG(USBx, ep->num);
 1224              		.loc 1 335 7 is_stmt 1 view .LVU418
 1225              	.LBE39:
 335:Drivers/STM32WBxx_HAL_Driver/Src/stm32wbxx_ll_usb.c ****       PCD_CLEAR_TX_DTOG(USBx, ep->num);
 1226              		.loc 1 335 7 view .LVU419
 336:Drivers/STM32WBxx_HAL_Driver/Src/stm32wbxx_ll_usb.c **** 
 1227              		.loc 1 336 7 view .LVU420
 1228              	.LBB41:
 336:Drivers/STM32WBxx_HAL_Driver/Src/stm32wbxx_ll_usb.c **** 
 1229              		.loc 1 336 7 view .LVU421
 336:Drivers/STM32WBxx_HAL_Driver/Src/stm32wbxx_ll_usb.c **** 
 1230              		.loc 1 336 7 view .LVU422
 1231 04e4 91F800C0 		ldrb	ip, [r1]	@ zero_extendqisi2
 1232 04e8 33F82C20 		ldrh	r2, [r3, ip, lsl #2]
 1233              	.LVL139:
 336:Drivers/STM32WBxx_HAL_Driver/Src/stm32wbxx_ll_usb.c **** 
 1234              		.loc 1 336 7 view .LVU423
 1235 04ec 12F0400F 		tst	r2, #64
 1236 04f0 0CD0     		beq	.L46
 336:Drivers/STM32WBxx_HAL_Driver/Src/stm32wbxx_ll_usb.c **** 
 1237              		.loc 1 336 7 discriminator 1 view .LVU424
 1238              	.LBB42:
 336:Drivers/STM32WBxx_HAL_Driver/Src/stm32wbxx_ll_usb.c **** 
 1239              		.loc 1 336 7 discriminator 1 view .LVU425
 336:Drivers/STM32WBxx_HAL_Driver/Src/stm32wbxx_ll_usb.c **** 
 1240              		.loc 1 336 7 discriminator 1 view .LVU426
 1241 04f2 33F82C20 		ldrh	r2, [r3, ip, lsl #2]
 1242              	.LVL140:
 336:Drivers/STM32WBxx_HAL_Driver/Src/stm32wbxx_ll_usb.c **** 
 1243              		.loc 1 336 7 is_stmt 0 discriminator 1 view .LVU427
 1244 04f6 92B2     		uxth	r2, r2
 1245 04f8 22F4E042 		bic	r2, r2, #28672
 1246 04fc 22F07002 		bic	r2, r2, #112
 1247              	.LVL141:
 336:Drivers/STM32WBxx_HAL_Driver/Src/stm32wbxx_ll_usb.c **** 
 1248              		.loc 1 336 7 is_stmt 1 view .LVU428
 336:Drivers/STM32WBxx_HAL_Driver/Src/stm32wbxx_ll_usb.c **** 
ARM GAS  C:\Users\Nathan\AppData\Local\Temp\ccuhR5Xd.s 			page 30


 1249              		.loc 1 336 7 is_stmt 0 discriminator 1 view .LVU429
 1250 0500 42F40042 		orr	r2, r2, #32768
 1251              	.LVL142:
 336:Drivers/STM32WBxx_HAL_Driver/Src/stm32wbxx_ll_usb.c **** 
 1252              		.loc 1 336 7 discriminator 1 view .LVU430
 1253 0504 42F0C002 		orr	r2, r2, #192
 1254 0508 23F82C20 		strh	r2, [r3, ip, lsl #2]	@ movhi
 1255              	.LVL143:
 1256              	.L46:
 336:Drivers/STM32WBxx_HAL_Driver/Src/stm32wbxx_ll_usb.c **** 
 1257              		.loc 1 336 7 discriminator 1 view .LVU431
 1258              	.LBE42:
 336:Drivers/STM32WBxx_HAL_Driver/Src/stm32wbxx_ll_usb.c **** 
 1259              		.loc 1 336 7 is_stmt 1 view .LVU432
 1260              	.LBE41:
 336:Drivers/STM32WBxx_HAL_Driver/Src/stm32wbxx_ll_usb.c **** 
 1261              		.loc 1 336 7 view .LVU433
 338:Drivers/STM32WBxx_HAL_Driver/Src/stm32wbxx_ll_usb.c ****       {
 1262              		.loc 1 338 7 view .LVU434
 338:Drivers/STM32WBxx_HAL_Driver/Src/stm32wbxx_ll_usb.c ****       {
 1263              		.loc 1 338 13 is_stmt 0 view .LVU435
 1264 050c CA78     		ldrb	r2, [r1, #3]	@ zero_extendqisi2
 338:Drivers/STM32WBxx_HAL_Driver/Src/stm32wbxx_ll_usb.c ****       {
 1265              		.loc 1 338 10 view .LVU436
 1266 050e 012A     		cmp	r2, #1
 1267 0510 1FD0     		beq	.L47
 341:Drivers/STM32WBxx_HAL_Driver/Src/stm32wbxx_ll_usb.c ****       }
 1268              		.loc 1 341 9 is_stmt 1 view .LVU437
 1269              	.LBB43:
 341:Drivers/STM32WBxx_HAL_Driver/Src/stm32wbxx_ll_usb.c ****       }
 1270              		.loc 1 341 9 view .LVU438
 341:Drivers/STM32WBxx_HAL_Driver/Src/stm32wbxx_ll_usb.c ****       }
 1271              		.loc 1 341 9 view .LVU439
 1272 0512 91F800C0 		ldrb	ip, [r1]	@ zero_extendqisi2
 1273 0516 33F82C20 		ldrh	r2, [r3, ip, lsl #2]
 1274 051a 92B2     		uxth	r2, r2
 1275 051c 22F4E042 		bic	r2, r2, #28672
 1276 0520 22F04002 		bic	r2, r2, #64
 1277              	.LVL144:
 341:Drivers/STM32WBxx_HAL_Driver/Src/stm32wbxx_ll_usb.c ****       }
 1278              		.loc 1 341 9 view .LVU440
 341:Drivers/STM32WBxx_HAL_Driver/Src/stm32wbxx_ll_usb.c ****       }
 1279              		.loc 1 341 9 discriminator 3 view .LVU441
 341:Drivers/STM32WBxx_HAL_Driver/Src/stm32wbxx_ll_usb.c ****       }
 1280              		.loc 1 341 9 discriminator 4 view .LVU442
 1281 0524 82F02002 		eor	r2, r2, #32
 1282              	.LVL145:
 341:Drivers/STM32WBxx_HAL_Driver/Src/stm32wbxx_ll_usb.c ****       }
 1283              		.loc 1 341 9 discriminator 6 view .LVU443
 1284 0528 42F40042 		orr	r2, r2, #32768
 1285              	.LVL146:
 341:Drivers/STM32WBxx_HAL_Driver/Src/stm32wbxx_ll_usb.c ****       }
 1286              		.loc 1 341 9 is_stmt 0 discriminator 6 view .LVU444
 1287 052c 42F08002 		orr	r2, r2, #128
 1288 0530 23F82C20 		strh	r2, [r3, ip, lsl #2]	@ movhi
 1289              	.LBE43:
 341:Drivers/STM32WBxx_HAL_Driver/Src/stm32wbxx_ll_usb.c ****       }
ARM GAS  C:\Users\Nathan\AppData\Local\Temp\ccuhR5Xd.s 			page 31


 1290              		.loc 1 341 9 is_stmt 1 view .LVU445
 1291              	.LVL147:
 1292              	.L48:
 346:Drivers/STM32WBxx_HAL_Driver/Src/stm32wbxx_ll_usb.c ****       }
 1293              		.loc 1 346 9 view .LVU446
 349:Drivers/STM32WBxx_HAL_Driver/Src/stm32wbxx_ll_usb.c ****     }
 1294              		.loc 1 349 7 view .LVU447
 1295              	.LBB44:
 349:Drivers/STM32WBxx_HAL_Driver/Src/stm32wbxx_ll_usb.c ****     }
 1296              		.loc 1 349 7 view .LVU448
 349:Drivers/STM32WBxx_HAL_Driver/Src/stm32wbxx_ll_usb.c ****     }
 1297              		.loc 1 349 7 view .LVU449
 1298 0534 0978     		ldrb	r1, [r1]	@ zero_extendqisi2
 1299              	.LVL148:
 349:Drivers/STM32WBxx_HAL_Driver/Src/stm32wbxx_ll_usb.c ****     }
 1300              		.loc 1 349 7 is_stmt 0 view .LVU450
 1301 0536 33F82120 		ldrh	r2, [r3, r1, lsl #2]
 1302 053a 92B2     		uxth	r2, r2
 1303 053c 22F48042 		bic	r2, r2, #16384
 1304 0540 22F07002 		bic	r2, r2, #112
 1305              	.LVL149:
 349:Drivers/STM32WBxx_HAL_Driver/Src/stm32wbxx_ll_usb.c ****     }
 1306              		.loc 1 349 7 is_stmt 1 view .LVU451
 349:Drivers/STM32WBxx_HAL_Driver/Src/stm32wbxx_ll_usb.c ****     }
 1307              		.loc 1 349 7 discriminator 3 view .LVU452
 349:Drivers/STM32WBxx_HAL_Driver/Src/stm32wbxx_ll_usb.c ****     }
 1308              		.loc 1 349 7 discriminator 6 view .LVU453
 1309 0544 42F40042 		orr	r2, r2, #32768
 1310              	.LVL150:
 349:Drivers/STM32WBxx_HAL_Driver/Src/stm32wbxx_ll_usb.c ****     }
 1311              		.loc 1 349 7 is_stmt 0 discriminator 6 view .LVU454
 1312 0548 42F08002 		orr	r2, r2, #128
 1313 054c 23F82120 		strh	r2, [r3, r1, lsl #2]	@ movhi
 1314 0550 A6E7     		b	.L20
 1315              	.LVL151:
 1316              	.L47:
 349:Drivers/STM32WBxx_HAL_Driver/Src/stm32wbxx_ll_usb.c ****     }
 1317              		.loc 1 349 7 discriminator 6 view .LVU455
 1318              	.LBE44:
 346:Drivers/STM32WBxx_HAL_Driver/Src/stm32wbxx_ll_usb.c ****       }
 1319              		.loc 1 346 9 is_stmt 1 view .LVU456
 1320              	.LBB45:
 346:Drivers/STM32WBxx_HAL_Driver/Src/stm32wbxx_ll_usb.c ****       }
 1321              		.loc 1 346 9 view .LVU457
 346:Drivers/STM32WBxx_HAL_Driver/Src/stm32wbxx_ll_usb.c ****       }
 1322              		.loc 1 346 9 view .LVU458
 1323 0552 91F800C0 		ldrb	ip, [r1]	@ zero_extendqisi2
 1324 0556 33F82C20 		ldrh	r2, [r3, ip, lsl #2]
 1325 055a 92B2     		uxth	r2, r2
 1326 055c 22F4E042 		bic	r2, r2, #28672
 1327 0560 22F04002 		bic	r2, r2, #64
 1328              	.LVL152:
 346:Drivers/STM32WBxx_HAL_Driver/Src/stm32wbxx_ll_usb.c ****       }
 1329              		.loc 1 346 9 view .LVU459
 346:Drivers/STM32WBxx_HAL_Driver/Src/stm32wbxx_ll_usb.c ****       }
 1330              		.loc 1 346 9 discriminator 3 view .LVU460
 346:Drivers/STM32WBxx_HAL_Driver/Src/stm32wbxx_ll_usb.c ****       }
ARM GAS  C:\Users\Nathan\AppData\Local\Temp\ccuhR5Xd.s 			page 32


 1331              		.loc 1 346 9 discriminator 6 view .LVU461
 1332 0564 42F40042 		orr	r2, r2, #32768
 1333              	.LVL153:
 346:Drivers/STM32WBxx_HAL_Driver/Src/stm32wbxx_ll_usb.c ****       }
 1334              		.loc 1 346 9 is_stmt 0 discriminator 6 view .LVU462
 1335 0568 42F08002 		orr	r2, r2, #128
 1336 056c 23F82C20 		strh	r2, [r3, ip, lsl #2]	@ movhi
 1337 0570 E0E7     		b	.L48
 1338              	.LBE45:
 1339              		.cfi_endproc
 1340              	.LFE957:
 1342              		.section	.text.USB_DeactivateEndpoint,"ax",%progbits
 1343              		.align	1
 1344              		.global	USB_DeactivateEndpoint
 1345              		.syntax unified
 1346              		.thumb
 1347              		.thumb_func
 1349              	USB_DeactivateEndpoint:
 1350              	.LVL154:
 1351              	.LFB958:
 356:Drivers/STM32WBxx_HAL_Driver/Src/stm32wbxx_ll_usb.c **** 
 357:Drivers/STM32WBxx_HAL_Driver/Src/stm32wbxx_ll_usb.c **** /**
 358:Drivers/STM32WBxx_HAL_Driver/Src/stm32wbxx_ll_usb.c ****   * @brief  De-activate and de-initialize an endpoint
 359:Drivers/STM32WBxx_HAL_Driver/Src/stm32wbxx_ll_usb.c ****   * @param  USBx Selected device
 360:Drivers/STM32WBxx_HAL_Driver/Src/stm32wbxx_ll_usb.c ****   * @param  ep pointer to endpoint structure
 361:Drivers/STM32WBxx_HAL_Driver/Src/stm32wbxx_ll_usb.c ****   * @retval HAL status
 362:Drivers/STM32WBxx_HAL_Driver/Src/stm32wbxx_ll_usb.c ****   */
 363:Drivers/STM32WBxx_HAL_Driver/Src/stm32wbxx_ll_usb.c **** HAL_StatusTypeDef USB_DeactivateEndpoint(USB_TypeDef *USBx, USB_EPTypeDef *ep)
 364:Drivers/STM32WBxx_HAL_Driver/Src/stm32wbxx_ll_usb.c **** {
 1352              		.loc 1 364 1 is_stmt 1 view -0
 1353              		.cfi_startproc
 1354              		@ args = 0, pretend = 0, frame = 0
 1355              		@ frame_needed = 0, uses_anonymous_args = 0
 1356              		@ link register save eliminated.
 365:Drivers/STM32WBxx_HAL_Driver/Src/stm32wbxx_ll_usb.c ****   if (ep->doublebuffer == 0U)
 1357              		.loc 1 365 3 view .LVU464
 1358              		.loc 1 365 9 is_stmt 0 view .LVU465
 1359 0000 0B7B     		ldrb	r3, [r1, #12]	@ zero_extendqisi2
 1360              		.loc 1 365 6 view .LVU466
 1361 0002 002B     		cmp	r3, #0
 1362 0004 46D1     		bne	.L57
 366:Drivers/STM32WBxx_HAL_Driver/Src/stm32wbxx_ll_usb.c ****   {
 367:Drivers/STM32WBxx_HAL_Driver/Src/stm32wbxx_ll_usb.c ****     if (ep->is_in != 0U)
 1363              		.loc 1 367 5 is_stmt 1 view .LVU467
 1364              		.loc 1 367 11 is_stmt 0 view .LVU468
 1365 0006 4B78     		ldrb	r3, [r1, #1]	@ zero_extendqisi2
 1366              		.loc 1 367 8 view .LVU469
 1367 0008 13B3     		cbz	r3, .L58
 368:Drivers/STM32WBxx_HAL_Driver/Src/stm32wbxx_ll_usb.c ****     {
 369:Drivers/STM32WBxx_HAL_Driver/Src/stm32wbxx_ll_usb.c ****       PCD_CLEAR_TX_DTOG(USBx, ep->num);
 1368              		.loc 1 369 7 is_stmt 1 view .LVU470
 1369              	.LBB46:
 1370              		.loc 1 369 7 view .LVU471
 1371              		.loc 1 369 7 view .LVU472
 1372 000a 0A78     		ldrb	r2, [r1]	@ zero_extendqisi2
 1373 000c 30F82230 		ldrh	r3, [r0, r2, lsl #2]
 1374              	.LVL155:
ARM GAS  C:\Users\Nathan\AppData\Local\Temp\ccuhR5Xd.s 			page 33


 1375              		.loc 1 369 7 view .LVU473
 1376 0010 13F0400F 		tst	r3, #64
 1377 0014 0CD0     		beq	.L59
 1378              		.loc 1 369 7 discriminator 1 view .LVU474
 1379              	.LBB47:
 1380              		.loc 1 369 7 discriminator 1 view .LVU475
 1381              		.loc 1 369 7 discriminator 1 view .LVU476
 1382 0016 30F82230 		ldrh	r3, [r0, r2, lsl #2]
 1383              	.LVL156:
 1384              		.loc 1 369 7 is_stmt 0 discriminator 1 view .LVU477
 1385 001a 9BB2     		uxth	r3, r3
 1386 001c 23F4E043 		bic	r3, r3, #28672
 1387 0020 23F07003 		bic	r3, r3, #112
 1388              	.LVL157:
 1389              		.loc 1 369 7 is_stmt 1 view .LVU478
 1390              		.loc 1 369 7 is_stmt 0 discriminator 1 view .LVU479
 1391 0024 43F40043 		orr	r3, r3, #32768
 1392              	.LVL158:
 1393              		.loc 1 369 7 discriminator 1 view .LVU480
 1394 0028 43F0C003 		orr	r3, r3, #192
 1395 002c 20F82230 		strh	r3, [r0, r2, lsl #2]	@ movhi
 1396              	.LVL159:
 1397              	.L59:
 1398              		.loc 1 369 7 discriminator 1 view .LVU481
 1399              	.LBE47:
 1400              		.loc 1 369 7 is_stmt 1 view .LVU482
 1401              	.LBE46:
 1402              		.loc 1 369 7 view .LVU483
 370:Drivers/STM32WBxx_HAL_Driver/Src/stm32wbxx_ll_usb.c **** 
 371:Drivers/STM32WBxx_HAL_Driver/Src/stm32wbxx_ll_usb.c ****       /* Configure DISABLE status for the Endpoint */
 372:Drivers/STM32WBxx_HAL_Driver/Src/stm32wbxx_ll_usb.c ****       PCD_SET_EP_TX_STATUS(USBx, ep->num, USB_EP_TX_DIS);
 1403              		.loc 1 372 7 view .LVU484
 1404              	.LBB48:
 1405              		.loc 1 372 7 view .LVU485
 1406              		.loc 1 372 7 view .LVU486
 1407 0030 0A78     		ldrb	r2, [r1]	@ zero_extendqisi2
 1408 0032 30F82230 		ldrh	r3, [r0, r2, lsl #2]
 1409 0036 9BB2     		uxth	r3, r3
 1410 0038 23F4E043 		bic	r3, r3, #28672
 1411 003c 23F04003 		bic	r3, r3, #64
 1412              	.LVL160:
 1413              		.loc 1 372 7 view .LVU487
 1414              		.loc 1 372 7 discriminator 3 view .LVU488
 1415              		.loc 1 372 7 discriminator 6 view .LVU489
 1416 0040 43F40043 		orr	r3, r3, #32768
 1417              	.LVL161:
 1418              		.loc 1 372 7 is_stmt 0 discriminator 6 view .LVU490
 1419 0044 43F08003 		orr	r3, r3, #128
 1420 0048 20F82230 		strh	r3, [r0, r2, lsl #2]	@ movhi
 1421              	.LBE48:
 1422              		.loc 1 372 7 is_stmt 1 view .LVU491
 1423              	.LVL162:
 1424              	.L60:
 373:Drivers/STM32WBxx_HAL_Driver/Src/stm32wbxx_ll_usb.c ****     }
 374:Drivers/STM32WBxx_HAL_Driver/Src/stm32wbxx_ll_usb.c **** 
 375:Drivers/STM32WBxx_HAL_Driver/Src/stm32wbxx_ll_usb.c ****     else
 376:Drivers/STM32WBxx_HAL_Driver/Src/stm32wbxx_ll_usb.c ****     {
ARM GAS  C:\Users\Nathan\AppData\Local\Temp\ccuhR5Xd.s 			page 34


 377:Drivers/STM32WBxx_HAL_Driver/Src/stm32wbxx_ll_usb.c ****       PCD_CLEAR_RX_DTOG(USBx, ep->num);
 378:Drivers/STM32WBxx_HAL_Driver/Src/stm32wbxx_ll_usb.c **** 
 379:Drivers/STM32WBxx_HAL_Driver/Src/stm32wbxx_ll_usb.c ****       /* Configure DISABLE status for the Endpoint */
 380:Drivers/STM32WBxx_HAL_Driver/Src/stm32wbxx_ll_usb.c ****       PCD_SET_EP_RX_STATUS(USBx, ep->num, USB_EP_RX_DIS);
 381:Drivers/STM32WBxx_HAL_Driver/Src/stm32wbxx_ll_usb.c ****     }
 382:Drivers/STM32WBxx_HAL_Driver/Src/stm32wbxx_ll_usb.c ****   }
 383:Drivers/STM32WBxx_HAL_Driver/Src/stm32wbxx_ll_usb.c **** #if (USE_USB_DOUBLE_BUFFER == 1U)
 384:Drivers/STM32WBxx_HAL_Driver/Src/stm32wbxx_ll_usb.c ****   /* Double Buffer */
 385:Drivers/STM32WBxx_HAL_Driver/Src/stm32wbxx_ll_usb.c ****   else
 386:Drivers/STM32WBxx_HAL_Driver/Src/stm32wbxx_ll_usb.c ****   {
 387:Drivers/STM32WBxx_HAL_Driver/Src/stm32wbxx_ll_usb.c ****     if (ep->is_in == 0U)
 388:Drivers/STM32WBxx_HAL_Driver/Src/stm32wbxx_ll_usb.c ****     {
 389:Drivers/STM32WBxx_HAL_Driver/Src/stm32wbxx_ll_usb.c ****       /* Clear the data toggle bits for the endpoint IN/OUT*/
 390:Drivers/STM32WBxx_HAL_Driver/Src/stm32wbxx_ll_usb.c ****       PCD_CLEAR_RX_DTOG(USBx, ep->num);
 391:Drivers/STM32WBxx_HAL_Driver/Src/stm32wbxx_ll_usb.c ****       PCD_CLEAR_TX_DTOG(USBx, ep->num);
 392:Drivers/STM32WBxx_HAL_Driver/Src/stm32wbxx_ll_usb.c **** 
 393:Drivers/STM32WBxx_HAL_Driver/Src/stm32wbxx_ll_usb.c ****       /* Reset value of the data toggle bits for the endpoint out*/
 394:Drivers/STM32WBxx_HAL_Driver/Src/stm32wbxx_ll_usb.c ****       PCD_TX_DTOG(USBx, ep->num);
 395:Drivers/STM32WBxx_HAL_Driver/Src/stm32wbxx_ll_usb.c **** 
 396:Drivers/STM32WBxx_HAL_Driver/Src/stm32wbxx_ll_usb.c ****       PCD_SET_EP_RX_STATUS(USBx, ep->num, USB_EP_RX_DIS);
 397:Drivers/STM32WBxx_HAL_Driver/Src/stm32wbxx_ll_usb.c ****       PCD_SET_EP_TX_STATUS(USBx, ep->num, USB_EP_TX_DIS);
 398:Drivers/STM32WBxx_HAL_Driver/Src/stm32wbxx_ll_usb.c ****     }
 399:Drivers/STM32WBxx_HAL_Driver/Src/stm32wbxx_ll_usb.c ****     else
 400:Drivers/STM32WBxx_HAL_Driver/Src/stm32wbxx_ll_usb.c ****     {
 401:Drivers/STM32WBxx_HAL_Driver/Src/stm32wbxx_ll_usb.c ****       /* Clear the data toggle bits for the endpoint IN/OUT*/
 402:Drivers/STM32WBxx_HAL_Driver/Src/stm32wbxx_ll_usb.c ****       PCD_CLEAR_RX_DTOG(USBx, ep->num);
 403:Drivers/STM32WBxx_HAL_Driver/Src/stm32wbxx_ll_usb.c ****       PCD_CLEAR_TX_DTOG(USBx, ep->num);
 404:Drivers/STM32WBxx_HAL_Driver/Src/stm32wbxx_ll_usb.c ****       PCD_RX_DTOG(USBx, ep->num);
 405:Drivers/STM32WBxx_HAL_Driver/Src/stm32wbxx_ll_usb.c **** 
 406:Drivers/STM32WBxx_HAL_Driver/Src/stm32wbxx_ll_usb.c ****       /* Configure DISABLE status for the Endpoint*/
 407:Drivers/STM32WBxx_HAL_Driver/Src/stm32wbxx_ll_usb.c ****       PCD_SET_EP_TX_STATUS(USBx, ep->num, USB_EP_TX_DIS);
 408:Drivers/STM32WBxx_HAL_Driver/Src/stm32wbxx_ll_usb.c ****       PCD_SET_EP_RX_STATUS(USBx, ep->num, USB_EP_RX_DIS);
 1425              		.loc 1 408 7 view .LVU492
 409:Drivers/STM32WBxx_HAL_Driver/Src/stm32wbxx_ll_usb.c ****     }
 410:Drivers/STM32WBxx_HAL_Driver/Src/stm32wbxx_ll_usb.c ****   }
 411:Drivers/STM32WBxx_HAL_Driver/Src/stm32wbxx_ll_usb.c **** #endif /* (USE_USB_DOUBLE_BUFFER == 1U) */
 412:Drivers/STM32WBxx_HAL_Driver/Src/stm32wbxx_ll_usb.c **** 
 413:Drivers/STM32WBxx_HAL_Driver/Src/stm32wbxx_ll_usb.c ****   return HAL_OK;
 1426              		.loc 1 413 3 view .LVU493
 414:Drivers/STM32WBxx_HAL_Driver/Src/stm32wbxx_ll_usb.c **** }
 1427              		.loc 1 414 1 is_stmt 0 view .LVU494
 1428 004c 0020     		movs	r0, #0
 1429              	.LVL163:
 1430              		.loc 1 414 1 view .LVU495
 1431 004e 7047     		bx	lr
 1432              	.LVL164:
 1433              	.L58:
 377:Drivers/STM32WBxx_HAL_Driver/Src/stm32wbxx_ll_usb.c **** 
 1434              		.loc 1 377 7 is_stmt 1 view .LVU496
 1435              	.LBB49:
 377:Drivers/STM32WBxx_HAL_Driver/Src/stm32wbxx_ll_usb.c **** 
 1436              		.loc 1 377 7 view .LVU497
 377:Drivers/STM32WBxx_HAL_Driver/Src/stm32wbxx_ll_usb.c **** 
 1437              		.loc 1 377 7 view .LVU498
 1438 0050 0A78     		ldrb	r2, [r1]	@ zero_extendqisi2
 1439 0052 30F82230 		ldrh	r3, [r0, r2, lsl #2]
 1440              	.LVL165:
ARM GAS  C:\Users\Nathan\AppData\Local\Temp\ccuhR5Xd.s 			page 35


 377:Drivers/STM32WBxx_HAL_Driver/Src/stm32wbxx_ll_usb.c **** 
 1441              		.loc 1 377 7 view .LVU499
 1442 0056 13F4804F 		tst	r3, #16384
 1443 005a 0CD0     		beq	.L61
 377:Drivers/STM32WBxx_HAL_Driver/Src/stm32wbxx_ll_usb.c **** 
 1444              		.loc 1 377 7 discriminator 1 view .LVU500
 1445              	.LBB50:
 377:Drivers/STM32WBxx_HAL_Driver/Src/stm32wbxx_ll_usb.c **** 
 1446              		.loc 1 377 7 discriminator 1 view .LVU501
 377:Drivers/STM32WBxx_HAL_Driver/Src/stm32wbxx_ll_usb.c **** 
 1447              		.loc 1 377 7 discriminator 1 view .LVU502
 1448 005c 30F82230 		ldrh	r3, [r0, r2, lsl #2]
 1449              	.LVL166:
 377:Drivers/STM32WBxx_HAL_Driver/Src/stm32wbxx_ll_usb.c **** 
 1450              		.loc 1 377 7 is_stmt 0 discriminator 1 view .LVU503
 1451 0060 9BB2     		uxth	r3, r3
 1452 0062 23F4E043 		bic	r3, r3, #28672
 1453 0066 23F07003 		bic	r3, r3, #112
 1454              	.LVL167:
 377:Drivers/STM32WBxx_HAL_Driver/Src/stm32wbxx_ll_usb.c **** 
 1455              		.loc 1 377 7 is_stmt 1 view .LVU504
 377:Drivers/STM32WBxx_HAL_Driver/Src/stm32wbxx_ll_usb.c **** 
 1456              		.loc 1 377 7 is_stmt 0 discriminator 1 view .LVU505
 1457 006a 43F44043 		orr	r3, r3, #49152
 1458              	.LVL168:
 377:Drivers/STM32WBxx_HAL_Driver/Src/stm32wbxx_ll_usb.c **** 
 1459              		.loc 1 377 7 discriminator 1 view .LVU506
 1460 006e 43F08003 		orr	r3, r3, #128
 1461 0072 20F82230 		strh	r3, [r0, r2, lsl #2]	@ movhi
 1462              	.LVL169:
 1463              	.L61:
 377:Drivers/STM32WBxx_HAL_Driver/Src/stm32wbxx_ll_usb.c **** 
 1464              		.loc 1 377 7 discriminator 1 view .LVU507
 1465              	.LBE50:
 377:Drivers/STM32WBxx_HAL_Driver/Src/stm32wbxx_ll_usb.c **** 
 1466              		.loc 1 377 7 is_stmt 1 view .LVU508
 1467              	.LBE49:
 377:Drivers/STM32WBxx_HAL_Driver/Src/stm32wbxx_ll_usb.c **** 
 1468              		.loc 1 377 7 view .LVU509
 380:Drivers/STM32WBxx_HAL_Driver/Src/stm32wbxx_ll_usb.c ****     }
 1469              		.loc 1 380 7 view .LVU510
 1470              	.LBB51:
 380:Drivers/STM32WBxx_HAL_Driver/Src/stm32wbxx_ll_usb.c ****     }
 1471              		.loc 1 380 7 view .LVU511
 380:Drivers/STM32WBxx_HAL_Driver/Src/stm32wbxx_ll_usb.c ****     }
 1472              		.loc 1 380 7 view .LVU512
 1473 0076 0A78     		ldrb	r2, [r1]	@ zero_extendqisi2
 1474 0078 30F82230 		ldrh	r3, [r0, r2, lsl #2]
 1475 007c 9BB2     		uxth	r3, r3
 1476 007e 23F48043 		bic	r3, r3, #16384
 1477 0082 23F07003 		bic	r3, r3, #112
 1478              	.LVL170:
 380:Drivers/STM32WBxx_HAL_Driver/Src/stm32wbxx_ll_usb.c ****     }
 1479              		.loc 1 380 7 view .LVU513
 380:Drivers/STM32WBxx_HAL_Driver/Src/stm32wbxx_ll_usb.c ****     }
 1480              		.loc 1 380 7 discriminator 3 view .LVU514
 380:Drivers/STM32WBxx_HAL_Driver/Src/stm32wbxx_ll_usb.c ****     }
ARM GAS  C:\Users\Nathan\AppData\Local\Temp\ccuhR5Xd.s 			page 36


 1481              		.loc 1 380 7 discriminator 6 view .LVU515
 1482 0086 43F40043 		orr	r3, r3, #32768
 1483              	.LVL171:
 380:Drivers/STM32WBxx_HAL_Driver/Src/stm32wbxx_ll_usb.c ****     }
 1484              		.loc 1 380 7 is_stmt 0 discriminator 6 view .LVU516
 1485 008a 43F08003 		orr	r3, r3, #128
 1486 008e 20F82230 		strh	r3, [r0, r2, lsl #2]	@ movhi
 1487 0092 DBE7     		b	.L60
 1488              	.LVL172:
 1489              	.L57:
 380:Drivers/STM32WBxx_HAL_Driver/Src/stm32wbxx_ll_usb.c ****     }
 1490              		.loc 1 380 7 discriminator 6 view .LVU517
 1491              	.LBE51:
 387:Drivers/STM32WBxx_HAL_Driver/Src/stm32wbxx_ll_usb.c ****     {
 1492              		.loc 1 387 5 is_stmt 1 view .LVU518
 387:Drivers/STM32WBxx_HAL_Driver/Src/stm32wbxx_ll_usb.c ****     {
 1493              		.loc 1 387 11 is_stmt 0 view .LVU519
 1494 0094 4B78     		ldrb	r3, [r1, #1]	@ zero_extendqisi2
 387:Drivers/STM32WBxx_HAL_Driver/Src/stm32wbxx_ll_usb.c ****     {
 1495              		.loc 1 387 8 view .LVU520
 1496 0096 002B     		cmp	r3, #0
 1497 0098 4ED1     		bne	.L62
 390:Drivers/STM32WBxx_HAL_Driver/Src/stm32wbxx_ll_usb.c ****       PCD_CLEAR_TX_DTOG(USBx, ep->num);
 1498              		.loc 1 390 7 is_stmt 1 view .LVU521
 1499              	.LBB52:
 390:Drivers/STM32WBxx_HAL_Driver/Src/stm32wbxx_ll_usb.c ****       PCD_CLEAR_TX_DTOG(USBx, ep->num);
 1500              		.loc 1 390 7 view .LVU522
 390:Drivers/STM32WBxx_HAL_Driver/Src/stm32wbxx_ll_usb.c ****       PCD_CLEAR_TX_DTOG(USBx, ep->num);
 1501              		.loc 1 390 7 view .LVU523
 1502 009a 0A78     		ldrb	r2, [r1]	@ zero_extendqisi2
 1503 009c 30F82230 		ldrh	r3, [r0, r2, lsl #2]
 1504              	.LVL173:
 390:Drivers/STM32WBxx_HAL_Driver/Src/stm32wbxx_ll_usb.c ****       PCD_CLEAR_TX_DTOG(USBx, ep->num);
 1505              		.loc 1 390 7 view .LVU524
 1506 00a0 13F4804F 		tst	r3, #16384
 1507 00a4 0CD0     		beq	.L63
 390:Drivers/STM32WBxx_HAL_Driver/Src/stm32wbxx_ll_usb.c ****       PCD_CLEAR_TX_DTOG(USBx, ep->num);
 1508              		.loc 1 390 7 discriminator 1 view .LVU525
 1509              	.LBB53:
 390:Drivers/STM32WBxx_HAL_Driver/Src/stm32wbxx_ll_usb.c ****       PCD_CLEAR_TX_DTOG(USBx, ep->num);
 1510              		.loc 1 390 7 discriminator 1 view .LVU526
 390:Drivers/STM32WBxx_HAL_Driver/Src/stm32wbxx_ll_usb.c ****       PCD_CLEAR_TX_DTOG(USBx, ep->num);
 1511              		.loc 1 390 7 discriminator 1 view .LVU527
 1512 00a6 30F82230 		ldrh	r3, [r0, r2, lsl #2]
 1513              	.LVL174:
 390:Drivers/STM32WBxx_HAL_Driver/Src/stm32wbxx_ll_usb.c ****       PCD_CLEAR_TX_DTOG(USBx, ep->num);
 1514              		.loc 1 390 7 is_stmt 0 discriminator 1 view .LVU528
 1515 00aa 9BB2     		uxth	r3, r3
 1516 00ac 23F4E043 		bic	r3, r3, #28672
 1517 00b0 23F07003 		bic	r3, r3, #112
 1518              	.LVL175:
 390:Drivers/STM32WBxx_HAL_Driver/Src/stm32wbxx_ll_usb.c ****       PCD_CLEAR_TX_DTOG(USBx, ep->num);
 1519              		.loc 1 390 7 is_stmt 1 view .LVU529
 390:Drivers/STM32WBxx_HAL_Driver/Src/stm32wbxx_ll_usb.c ****       PCD_CLEAR_TX_DTOG(USBx, ep->num);
 1520              		.loc 1 390 7 is_stmt 0 discriminator 1 view .LVU530
 1521 00b4 43F44043 		orr	r3, r3, #49152
 1522              	.LVL176:
ARM GAS  C:\Users\Nathan\AppData\Local\Temp\ccuhR5Xd.s 			page 37


 390:Drivers/STM32WBxx_HAL_Driver/Src/stm32wbxx_ll_usb.c ****       PCD_CLEAR_TX_DTOG(USBx, ep->num);
 1523              		.loc 1 390 7 discriminator 1 view .LVU531
 1524 00b8 43F08003 		orr	r3, r3, #128
 1525 00bc 20F82230 		strh	r3, [r0, r2, lsl #2]	@ movhi
 1526              	.LVL177:
 1527              	.L63:
 390:Drivers/STM32WBxx_HAL_Driver/Src/stm32wbxx_ll_usb.c ****       PCD_CLEAR_TX_DTOG(USBx, ep->num);
 1528              		.loc 1 390 7 discriminator 1 view .LVU532
 1529              	.LBE53:
 390:Drivers/STM32WBxx_HAL_Driver/Src/stm32wbxx_ll_usb.c ****       PCD_CLEAR_TX_DTOG(USBx, ep->num);
 1530              		.loc 1 390 7 is_stmt 1 view .LVU533
 1531              	.LBE52:
 390:Drivers/STM32WBxx_HAL_Driver/Src/stm32wbxx_ll_usb.c ****       PCD_CLEAR_TX_DTOG(USBx, ep->num);
 1532              		.loc 1 390 7 view .LVU534
 391:Drivers/STM32WBxx_HAL_Driver/Src/stm32wbxx_ll_usb.c **** 
 1533              		.loc 1 391 7 view .LVU535
 1534              	.LBB54:
 391:Drivers/STM32WBxx_HAL_Driver/Src/stm32wbxx_ll_usb.c **** 
 1535              		.loc 1 391 7 view .LVU536
 391:Drivers/STM32WBxx_HAL_Driver/Src/stm32wbxx_ll_usb.c **** 
 1536              		.loc 1 391 7 view .LVU537
 1537 00c0 0A78     		ldrb	r2, [r1]	@ zero_extendqisi2
 1538 00c2 30F82230 		ldrh	r3, [r0, r2, lsl #2]
 1539              	.LVL178:
 391:Drivers/STM32WBxx_HAL_Driver/Src/stm32wbxx_ll_usb.c **** 
 1540              		.loc 1 391 7 view .LVU538
 1541 00c6 13F0400F 		tst	r3, #64
 1542 00ca 0CD0     		beq	.L64
 391:Drivers/STM32WBxx_HAL_Driver/Src/stm32wbxx_ll_usb.c **** 
 1543              		.loc 1 391 7 discriminator 1 view .LVU539
 1544              	.LBB55:
 391:Drivers/STM32WBxx_HAL_Driver/Src/stm32wbxx_ll_usb.c **** 
 1545              		.loc 1 391 7 discriminator 1 view .LVU540
 391:Drivers/STM32WBxx_HAL_Driver/Src/stm32wbxx_ll_usb.c **** 
 1546              		.loc 1 391 7 discriminator 1 view .LVU541
 1547 00cc 30F82230 		ldrh	r3, [r0, r2, lsl #2]
 1548              	.LVL179:
 391:Drivers/STM32WBxx_HAL_Driver/Src/stm32wbxx_ll_usb.c **** 
 1549              		.loc 1 391 7 is_stmt 0 discriminator 1 view .LVU542
 1550 00d0 9BB2     		uxth	r3, r3
 1551 00d2 23F4E043 		bic	r3, r3, #28672
 1552 00d6 23F07003 		bic	r3, r3, #112
 1553              	.LVL180:
 391:Drivers/STM32WBxx_HAL_Driver/Src/stm32wbxx_ll_usb.c **** 
 1554              		.loc 1 391 7 is_stmt 1 view .LVU543
 391:Drivers/STM32WBxx_HAL_Driver/Src/stm32wbxx_ll_usb.c **** 
 1555              		.loc 1 391 7 is_stmt 0 discriminator 1 view .LVU544
 1556 00da 43F40043 		orr	r3, r3, #32768
 1557              	.LVL181:
 391:Drivers/STM32WBxx_HAL_Driver/Src/stm32wbxx_ll_usb.c **** 
 1558              		.loc 1 391 7 discriminator 1 view .LVU545
 1559 00de 43F0C003 		orr	r3, r3, #192
 1560 00e2 20F82230 		strh	r3, [r0, r2, lsl #2]	@ movhi
 1561              	.LVL182:
 1562              	.L64:
 391:Drivers/STM32WBxx_HAL_Driver/Src/stm32wbxx_ll_usb.c **** 
 1563              		.loc 1 391 7 discriminator 1 view .LVU546
ARM GAS  C:\Users\Nathan\AppData\Local\Temp\ccuhR5Xd.s 			page 38


 1564              	.LBE55:
 391:Drivers/STM32WBxx_HAL_Driver/Src/stm32wbxx_ll_usb.c **** 
 1565              		.loc 1 391 7 is_stmt 1 view .LVU547
 1566              	.LBE54:
 391:Drivers/STM32WBxx_HAL_Driver/Src/stm32wbxx_ll_usb.c **** 
 1567              		.loc 1 391 7 view .LVU548
 394:Drivers/STM32WBxx_HAL_Driver/Src/stm32wbxx_ll_usb.c **** 
 1568              		.loc 1 394 7 view .LVU549
 1569              	.LBB56:
 394:Drivers/STM32WBxx_HAL_Driver/Src/stm32wbxx_ll_usb.c **** 
 1570              		.loc 1 394 7 view .LVU550
 394:Drivers/STM32WBxx_HAL_Driver/Src/stm32wbxx_ll_usb.c **** 
 1571              		.loc 1 394 7 view .LVU551
 1572 00e6 0A78     		ldrb	r2, [r1]	@ zero_extendqisi2
 1573 00e8 30F82230 		ldrh	r3, [r0, r2, lsl #2]
 1574 00ec 9BB2     		uxth	r3, r3
 1575 00ee 23F4E043 		bic	r3, r3, #28672
 1576 00f2 23F07003 		bic	r3, r3, #112
 1577              	.LVL183:
 394:Drivers/STM32WBxx_HAL_Driver/Src/stm32wbxx_ll_usb.c **** 
 1578              		.loc 1 394 7 view .LVU552
 1579 00f6 43F40043 		orr	r3, r3, #32768
 1580              	.LVL184:
 394:Drivers/STM32WBxx_HAL_Driver/Src/stm32wbxx_ll_usb.c **** 
 1581              		.loc 1 394 7 is_stmt 0 view .LVU553
 1582 00fa 43F0C003 		orr	r3, r3, #192
 1583 00fe 20F82230 		strh	r3, [r0, r2, lsl #2]	@ movhi
 1584              	.LBE56:
 394:Drivers/STM32WBxx_HAL_Driver/Src/stm32wbxx_ll_usb.c **** 
 1585              		.loc 1 394 7 is_stmt 1 view .LVU554
 396:Drivers/STM32WBxx_HAL_Driver/Src/stm32wbxx_ll_usb.c ****       PCD_SET_EP_TX_STATUS(USBx, ep->num, USB_EP_TX_DIS);
 1586              		.loc 1 396 7 view .LVU555
 1587              	.LBB57:
 396:Drivers/STM32WBxx_HAL_Driver/Src/stm32wbxx_ll_usb.c ****       PCD_SET_EP_TX_STATUS(USBx, ep->num, USB_EP_TX_DIS);
 1588              		.loc 1 396 7 view .LVU556
 396:Drivers/STM32WBxx_HAL_Driver/Src/stm32wbxx_ll_usb.c ****       PCD_SET_EP_TX_STATUS(USBx, ep->num, USB_EP_TX_DIS);
 1589              		.loc 1 396 7 view .LVU557
 1590 0102 0A78     		ldrb	r2, [r1]	@ zero_extendqisi2
 1591 0104 30F82230 		ldrh	r3, [r0, r2, lsl #2]
 1592 0108 9BB2     		uxth	r3, r3
 1593 010a 23F48043 		bic	r3, r3, #16384
 1594 010e 23F07003 		bic	r3, r3, #112
 1595              	.LVL185:
 396:Drivers/STM32WBxx_HAL_Driver/Src/stm32wbxx_ll_usb.c ****       PCD_SET_EP_TX_STATUS(USBx, ep->num, USB_EP_TX_DIS);
 1596              		.loc 1 396 7 view .LVU558
 396:Drivers/STM32WBxx_HAL_Driver/Src/stm32wbxx_ll_usb.c ****       PCD_SET_EP_TX_STATUS(USBx, ep->num, USB_EP_TX_DIS);
 1597              		.loc 1 396 7 discriminator 3 view .LVU559
 396:Drivers/STM32WBxx_HAL_Driver/Src/stm32wbxx_ll_usb.c ****       PCD_SET_EP_TX_STATUS(USBx, ep->num, USB_EP_TX_DIS);
 1598              		.loc 1 396 7 discriminator 6 view .LVU560
 1599 0112 48F2800C 		movw	ip, #32896
 1600 0116 43EA0C03 		orr	r3, r3, ip
 1601              	.LVL186:
 396:Drivers/STM32WBxx_HAL_Driver/Src/stm32wbxx_ll_usb.c ****       PCD_SET_EP_TX_STATUS(USBx, ep->num, USB_EP_TX_DIS);
 1602              		.loc 1 396 7 is_stmt 0 discriminator 6 view .LVU561
 1603 011a 20F82230 		strh	r3, [r0, r2, lsl #2]	@ movhi
 1604              	.LBE57:
 396:Drivers/STM32WBxx_HAL_Driver/Src/stm32wbxx_ll_usb.c ****       PCD_SET_EP_TX_STATUS(USBx, ep->num, USB_EP_TX_DIS);
ARM GAS  C:\Users\Nathan\AppData\Local\Temp\ccuhR5Xd.s 			page 39


 1605              		.loc 1 396 7 is_stmt 1 view .LVU562
 397:Drivers/STM32WBxx_HAL_Driver/Src/stm32wbxx_ll_usb.c ****     }
 1606              		.loc 1 397 7 view .LVU563
 1607              	.LBB58:
 397:Drivers/STM32WBxx_HAL_Driver/Src/stm32wbxx_ll_usb.c ****     }
 1608              		.loc 1 397 7 view .LVU564
 397:Drivers/STM32WBxx_HAL_Driver/Src/stm32wbxx_ll_usb.c ****     }
 1609              		.loc 1 397 7 view .LVU565
 1610 011e 0A78     		ldrb	r2, [r1]	@ zero_extendqisi2
 1611 0120 30F82230 		ldrh	r3, [r0, r2, lsl #2]
 1612 0124 9BB2     		uxth	r3, r3
 1613 0126 23F4E043 		bic	r3, r3, #28672
 1614 012a 23F04003 		bic	r3, r3, #64
 1615              	.LVL187:
 397:Drivers/STM32WBxx_HAL_Driver/Src/stm32wbxx_ll_usb.c ****     }
 1616              		.loc 1 397 7 view .LVU566
 397:Drivers/STM32WBxx_HAL_Driver/Src/stm32wbxx_ll_usb.c ****     }
 1617              		.loc 1 397 7 discriminator 3 view .LVU567
 397:Drivers/STM32WBxx_HAL_Driver/Src/stm32wbxx_ll_usb.c ****     }
 1618              		.loc 1 397 7 discriminator 6 view .LVU568
 1619 012e 43EA0C03 		orr	r3, r3, ip
 1620              	.LVL188:
 397:Drivers/STM32WBxx_HAL_Driver/Src/stm32wbxx_ll_usb.c ****     }
 1621              		.loc 1 397 7 is_stmt 0 discriminator 6 view .LVU569
 1622 0132 20F82230 		strh	r3, [r0, r2, lsl #2]	@ movhi
 1623              	.LBE58:
 397:Drivers/STM32WBxx_HAL_Driver/Src/stm32wbxx_ll_usb.c ****     }
 1624              		.loc 1 397 7 is_stmt 1 view .LVU570
 1625 0136 89E7     		b	.L60
 1626              	.LVL189:
 1627              	.L62:
 402:Drivers/STM32WBxx_HAL_Driver/Src/stm32wbxx_ll_usb.c ****       PCD_CLEAR_TX_DTOG(USBx, ep->num);
 1628              		.loc 1 402 7 view .LVU571
 1629              	.LBB59:
 402:Drivers/STM32WBxx_HAL_Driver/Src/stm32wbxx_ll_usb.c ****       PCD_CLEAR_TX_DTOG(USBx, ep->num);
 1630              		.loc 1 402 7 view .LVU572
 402:Drivers/STM32WBxx_HAL_Driver/Src/stm32wbxx_ll_usb.c ****       PCD_CLEAR_TX_DTOG(USBx, ep->num);
 1631              		.loc 1 402 7 view .LVU573
 1632 0138 0A78     		ldrb	r2, [r1]	@ zero_extendqisi2
 1633 013a 30F82230 		ldrh	r3, [r0, r2, lsl #2]
 1634              	.LVL190:
 402:Drivers/STM32WBxx_HAL_Driver/Src/stm32wbxx_ll_usb.c ****       PCD_CLEAR_TX_DTOG(USBx, ep->num);
 1635              		.loc 1 402 7 view .LVU574
 1636 013e 13F4804F 		tst	r3, #16384
 1637 0142 0CD0     		beq	.L65
 402:Drivers/STM32WBxx_HAL_Driver/Src/stm32wbxx_ll_usb.c ****       PCD_CLEAR_TX_DTOG(USBx, ep->num);
 1638              		.loc 1 402 7 discriminator 1 view .LVU575
 1639              	.LBB60:
 402:Drivers/STM32WBxx_HAL_Driver/Src/stm32wbxx_ll_usb.c ****       PCD_CLEAR_TX_DTOG(USBx, ep->num);
 1640              		.loc 1 402 7 discriminator 1 view .LVU576
 402:Drivers/STM32WBxx_HAL_Driver/Src/stm32wbxx_ll_usb.c ****       PCD_CLEAR_TX_DTOG(USBx, ep->num);
 1641              		.loc 1 402 7 discriminator 1 view .LVU577
 1642 0144 30F82230 		ldrh	r3, [r0, r2, lsl #2]
 1643              	.LVL191:
 402:Drivers/STM32WBxx_HAL_Driver/Src/stm32wbxx_ll_usb.c ****       PCD_CLEAR_TX_DTOG(USBx, ep->num);
 1644              		.loc 1 402 7 is_stmt 0 discriminator 1 view .LVU578
 1645 0148 9BB2     		uxth	r3, r3
ARM GAS  C:\Users\Nathan\AppData\Local\Temp\ccuhR5Xd.s 			page 40


 1646 014a 23F4E043 		bic	r3, r3, #28672
 1647 014e 23F07003 		bic	r3, r3, #112
 1648              	.LVL192:
 402:Drivers/STM32WBxx_HAL_Driver/Src/stm32wbxx_ll_usb.c ****       PCD_CLEAR_TX_DTOG(USBx, ep->num);
 1649              		.loc 1 402 7 is_stmt 1 view .LVU579
 402:Drivers/STM32WBxx_HAL_Driver/Src/stm32wbxx_ll_usb.c ****       PCD_CLEAR_TX_DTOG(USBx, ep->num);
 1650              		.loc 1 402 7 is_stmt 0 discriminator 1 view .LVU580
 1651 0152 43F44043 		orr	r3, r3, #49152
 1652              	.LVL193:
 402:Drivers/STM32WBxx_HAL_Driver/Src/stm32wbxx_ll_usb.c ****       PCD_CLEAR_TX_DTOG(USBx, ep->num);
 1653              		.loc 1 402 7 discriminator 1 view .LVU581
 1654 0156 43F08003 		orr	r3, r3, #128
 1655 015a 20F82230 		strh	r3, [r0, r2, lsl #2]	@ movhi
 1656              	.LVL194:
 1657              	.L65:
 402:Drivers/STM32WBxx_HAL_Driver/Src/stm32wbxx_ll_usb.c ****       PCD_CLEAR_TX_DTOG(USBx, ep->num);
 1658              		.loc 1 402 7 discriminator 1 view .LVU582
 1659              	.LBE60:
 402:Drivers/STM32WBxx_HAL_Driver/Src/stm32wbxx_ll_usb.c ****       PCD_CLEAR_TX_DTOG(USBx, ep->num);
 1660              		.loc 1 402 7 is_stmt 1 view .LVU583
 1661              	.LBE59:
 402:Drivers/STM32WBxx_HAL_Driver/Src/stm32wbxx_ll_usb.c ****       PCD_CLEAR_TX_DTOG(USBx, ep->num);
 1662              		.loc 1 402 7 view .LVU584
 403:Drivers/STM32WBxx_HAL_Driver/Src/stm32wbxx_ll_usb.c ****       PCD_RX_DTOG(USBx, ep->num);
 1663              		.loc 1 403 7 view .LVU585
 1664              	.LBB61:
 403:Drivers/STM32WBxx_HAL_Driver/Src/stm32wbxx_ll_usb.c ****       PCD_RX_DTOG(USBx, ep->num);
 1665              		.loc 1 403 7 view .LVU586
 403:Drivers/STM32WBxx_HAL_Driver/Src/stm32wbxx_ll_usb.c ****       PCD_RX_DTOG(USBx, ep->num);
 1666              		.loc 1 403 7 view .LVU587
 1667 015e 0A78     		ldrb	r2, [r1]	@ zero_extendqisi2
 1668 0160 30F82230 		ldrh	r3, [r0, r2, lsl #2]
 1669              	.LVL195:
 403:Drivers/STM32WBxx_HAL_Driver/Src/stm32wbxx_ll_usb.c ****       PCD_RX_DTOG(USBx, ep->num);
 1670              		.loc 1 403 7 view .LVU588
 1671 0164 13F0400F 		tst	r3, #64
 1672 0168 0CD0     		beq	.L66
 403:Drivers/STM32WBxx_HAL_Driver/Src/stm32wbxx_ll_usb.c ****       PCD_RX_DTOG(USBx, ep->num);
 1673              		.loc 1 403 7 discriminator 1 view .LVU589
 1674              	.LBB62:
 403:Drivers/STM32WBxx_HAL_Driver/Src/stm32wbxx_ll_usb.c ****       PCD_RX_DTOG(USBx, ep->num);
 1675              		.loc 1 403 7 discriminator 1 view .LVU590
 403:Drivers/STM32WBxx_HAL_Driver/Src/stm32wbxx_ll_usb.c ****       PCD_RX_DTOG(USBx, ep->num);
 1676              		.loc 1 403 7 discriminator 1 view .LVU591
 1677 016a 30F82230 		ldrh	r3, [r0, r2, lsl #2]
 1678              	.LVL196:
 403:Drivers/STM32WBxx_HAL_Driver/Src/stm32wbxx_ll_usb.c ****       PCD_RX_DTOG(USBx, ep->num);
 1679              		.loc 1 403 7 is_stmt 0 discriminator 1 view .LVU592
 1680 016e 9BB2     		uxth	r3, r3
 1681 0170 23F4E043 		bic	r3, r3, #28672
 1682 0174 23F07003 		bic	r3, r3, #112
 1683              	.LVL197:
 403:Drivers/STM32WBxx_HAL_Driver/Src/stm32wbxx_ll_usb.c ****       PCD_RX_DTOG(USBx, ep->num);
 1684              		.loc 1 403 7 is_stmt 1 view .LVU593
 403:Drivers/STM32WBxx_HAL_Driver/Src/stm32wbxx_ll_usb.c ****       PCD_RX_DTOG(USBx, ep->num);
 1685              		.loc 1 403 7 is_stmt 0 discriminator 1 view .LVU594
 1686 0178 43F40043 		orr	r3, r3, #32768
ARM GAS  C:\Users\Nathan\AppData\Local\Temp\ccuhR5Xd.s 			page 41


 1687              	.LVL198:
 403:Drivers/STM32WBxx_HAL_Driver/Src/stm32wbxx_ll_usb.c ****       PCD_RX_DTOG(USBx, ep->num);
 1688              		.loc 1 403 7 discriminator 1 view .LVU595
 1689 017c 43F0C003 		orr	r3, r3, #192
 1690 0180 20F82230 		strh	r3, [r0, r2, lsl #2]	@ movhi
 1691              	.LVL199:
 1692              	.L66:
 403:Drivers/STM32WBxx_HAL_Driver/Src/stm32wbxx_ll_usb.c ****       PCD_RX_DTOG(USBx, ep->num);
 1693              		.loc 1 403 7 discriminator 1 view .LVU596
 1694              	.LBE62:
 403:Drivers/STM32WBxx_HAL_Driver/Src/stm32wbxx_ll_usb.c ****       PCD_RX_DTOG(USBx, ep->num);
 1695              		.loc 1 403 7 is_stmt 1 view .LVU597
 1696              	.LBE61:
 403:Drivers/STM32WBxx_HAL_Driver/Src/stm32wbxx_ll_usb.c ****       PCD_RX_DTOG(USBx, ep->num);
 1697              		.loc 1 403 7 view .LVU598
 404:Drivers/STM32WBxx_HAL_Driver/Src/stm32wbxx_ll_usb.c **** 
 1698              		.loc 1 404 7 view .LVU599
 1699              	.LBB63:
 404:Drivers/STM32WBxx_HAL_Driver/Src/stm32wbxx_ll_usb.c **** 
 1700              		.loc 1 404 7 view .LVU600
 404:Drivers/STM32WBxx_HAL_Driver/Src/stm32wbxx_ll_usb.c **** 
 1701              		.loc 1 404 7 view .LVU601
 1702 0184 0A78     		ldrb	r2, [r1]	@ zero_extendqisi2
 1703 0186 30F82230 		ldrh	r3, [r0, r2, lsl #2]
 1704 018a 9BB2     		uxth	r3, r3
 1705 018c 23F4E043 		bic	r3, r3, #28672
 1706 0190 23F07003 		bic	r3, r3, #112
 1707              	.LVL200:
 404:Drivers/STM32WBxx_HAL_Driver/Src/stm32wbxx_ll_usb.c **** 
 1708              		.loc 1 404 7 view .LVU602
 1709 0194 43F44043 		orr	r3, r3, #49152
 1710              	.LVL201:
 404:Drivers/STM32WBxx_HAL_Driver/Src/stm32wbxx_ll_usb.c **** 
 1711              		.loc 1 404 7 is_stmt 0 view .LVU603
 1712 0198 43F08003 		orr	r3, r3, #128
 1713 019c 20F82230 		strh	r3, [r0, r2, lsl #2]	@ movhi
 1714              	.LBE63:
 404:Drivers/STM32WBxx_HAL_Driver/Src/stm32wbxx_ll_usb.c **** 
 1715              		.loc 1 404 7 is_stmt 1 view .LVU604
 407:Drivers/STM32WBxx_HAL_Driver/Src/stm32wbxx_ll_usb.c ****       PCD_SET_EP_RX_STATUS(USBx, ep->num, USB_EP_RX_DIS);
 1716              		.loc 1 407 7 view .LVU605
 1717              	.LBB64:
 407:Drivers/STM32WBxx_HAL_Driver/Src/stm32wbxx_ll_usb.c ****       PCD_SET_EP_RX_STATUS(USBx, ep->num, USB_EP_RX_DIS);
 1718              		.loc 1 407 7 view .LVU606
 407:Drivers/STM32WBxx_HAL_Driver/Src/stm32wbxx_ll_usb.c ****       PCD_SET_EP_RX_STATUS(USBx, ep->num, USB_EP_RX_DIS);
 1719              		.loc 1 407 7 view .LVU607
 1720 01a0 0A78     		ldrb	r2, [r1]	@ zero_extendqisi2
 1721 01a2 30F82230 		ldrh	r3, [r0, r2, lsl #2]
 1722 01a6 9BB2     		uxth	r3, r3
 1723 01a8 23F4E043 		bic	r3, r3, #28672
 1724 01ac 23F04003 		bic	r3, r3, #64
 1725              	.LVL202:
 407:Drivers/STM32WBxx_HAL_Driver/Src/stm32wbxx_ll_usb.c ****       PCD_SET_EP_RX_STATUS(USBx, ep->num, USB_EP_RX_DIS);
 1726              		.loc 1 407 7 view .LVU608
 407:Drivers/STM32WBxx_HAL_Driver/Src/stm32wbxx_ll_usb.c ****       PCD_SET_EP_RX_STATUS(USBx, ep->num, USB_EP_RX_DIS);
 1727              		.loc 1 407 7 discriminator 3 view .LVU609
 407:Drivers/STM32WBxx_HAL_Driver/Src/stm32wbxx_ll_usb.c ****       PCD_SET_EP_RX_STATUS(USBx, ep->num, USB_EP_RX_DIS);
ARM GAS  C:\Users\Nathan\AppData\Local\Temp\ccuhR5Xd.s 			page 42


 1728              		.loc 1 407 7 discriminator 6 view .LVU610
 1729 01b0 48F2800C 		movw	ip, #32896
 1730 01b4 43EA0C03 		orr	r3, r3, ip
 1731              	.LVL203:
 407:Drivers/STM32WBxx_HAL_Driver/Src/stm32wbxx_ll_usb.c ****       PCD_SET_EP_RX_STATUS(USBx, ep->num, USB_EP_RX_DIS);
 1732              		.loc 1 407 7 is_stmt 0 discriminator 6 view .LVU611
 1733 01b8 20F82230 		strh	r3, [r0, r2, lsl #2]	@ movhi
 1734              	.LBE64:
 407:Drivers/STM32WBxx_HAL_Driver/Src/stm32wbxx_ll_usb.c ****       PCD_SET_EP_RX_STATUS(USBx, ep->num, USB_EP_RX_DIS);
 1735              		.loc 1 407 7 is_stmt 1 view .LVU612
 408:Drivers/STM32WBxx_HAL_Driver/Src/stm32wbxx_ll_usb.c ****     }
 1736              		.loc 1 408 7 view .LVU613
 1737              	.LBB65:
 408:Drivers/STM32WBxx_HAL_Driver/Src/stm32wbxx_ll_usb.c ****     }
 1738              		.loc 1 408 7 view .LVU614
 408:Drivers/STM32WBxx_HAL_Driver/Src/stm32wbxx_ll_usb.c ****     }
 1739              		.loc 1 408 7 view .LVU615
 1740 01bc 0A78     		ldrb	r2, [r1]	@ zero_extendqisi2
 1741 01be 30F82230 		ldrh	r3, [r0, r2, lsl #2]
 1742 01c2 9BB2     		uxth	r3, r3
 1743 01c4 23F48043 		bic	r3, r3, #16384
 1744 01c8 23F07003 		bic	r3, r3, #112
 1745              	.LVL204:
 408:Drivers/STM32WBxx_HAL_Driver/Src/stm32wbxx_ll_usb.c ****     }
 1746              		.loc 1 408 7 view .LVU616
 408:Drivers/STM32WBxx_HAL_Driver/Src/stm32wbxx_ll_usb.c ****     }
 1747              		.loc 1 408 7 discriminator 3 view .LVU617
 408:Drivers/STM32WBxx_HAL_Driver/Src/stm32wbxx_ll_usb.c ****     }
 1748              		.loc 1 408 7 discriminator 6 view .LVU618
 1749 01cc 43EA0C03 		orr	r3, r3, ip
 1750              	.LVL205:
 408:Drivers/STM32WBxx_HAL_Driver/Src/stm32wbxx_ll_usb.c ****     }
 1751              		.loc 1 408 7 is_stmt 0 discriminator 6 view .LVU619
 1752 01d0 20F82230 		strh	r3, [r0, r2, lsl #2]	@ movhi
 1753 01d4 3AE7     		b	.L60
 1754              	.LBE65:
 1755              		.cfi_endproc
 1756              	.LFE958:
 1758              		.section	.text.USB_EPSetStall,"ax",%progbits
 1759              		.align	1
 1760              		.global	USB_EPSetStall
 1761              		.syntax unified
 1762              		.thumb
 1763              		.thumb_func
 1765              	USB_EPSetStall:
 1766              	.LVL206:
 1767              	.LFB960:
 415:Drivers/STM32WBxx_HAL_Driver/Src/stm32wbxx_ll_usb.c **** 
 416:Drivers/STM32WBxx_HAL_Driver/Src/stm32wbxx_ll_usb.c **** /**
 417:Drivers/STM32WBxx_HAL_Driver/Src/stm32wbxx_ll_usb.c ****   * @brief  USB_EPStartXfer setup and starts a transfer over an EP
 418:Drivers/STM32WBxx_HAL_Driver/Src/stm32wbxx_ll_usb.c ****   * @param  USBx Selected device
 419:Drivers/STM32WBxx_HAL_Driver/Src/stm32wbxx_ll_usb.c ****   * @param  ep pointer to endpoint structure
 420:Drivers/STM32WBxx_HAL_Driver/Src/stm32wbxx_ll_usb.c ****   * @retval HAL status
 421:Drivers/STM32WBxx_HAL_Driver/Src/stm32wbxx_ll_usb.c ****   */
 422:Drivers/STM32WBxx_HAL_Driver/Src/stm32wbxx_ll_usb.c **** HAL_StatusTypeDef USB_EPStartXfer(USB_TypeDef *USBx, USB_EPTypeDef *ep)
 423:Drivers/STM32WBxx_HAL_Driver/Src/stm32wbxx_ll_usb.c **** {
 424:Drivers/STM32WBxx_HAL_Driver/Src/stm32wbxx_ll_usb.c ****   uint32_t len;
ARM GAS  C:\Users\Nathan\AppData\Local\Temp\ccuhR5Xd.s 			page 43


 425:Drivers/STM32WBxx_HAL_Driver/Src/stm32wbxx_ll_usb.c **** #if (USE_USB_DOUBLE_BUFFER == 1U)
 426:Drivers/STM32WBxx_HAL_Driver/Src/stm32wbxx_ll_usb.c ****   uint16_t pmabuffer;
 427:Drivers/STM32WBxx_HAL_Driver/Src/stm32wbxx_ll_usb.c ****   uint16_t wEPVal;
 428:Drivers/STM32WBxx_HAL_Driver/Src/stm32wbxx_ll_usb.c **** #endif /* (USE_USB_DOUBLE_BUFFER == 1U) */
 429:Drivers/STM32WBxx_HAL_Driver/Src/stm32wbxx_ll_usb.c **** 
 430:Drivers/STM32WBxx_HAL_Driver/Src/stm32wbxx_ll_usb.c ****   /* IN endpoint */
 431:Drivers/STM32WBxx_HAL_Driver/Src/stm32wbxx_ll_usb.c ****   if (ep->is_in == 1U)
 432:Drivers/STM32WBxx_HAL_Driver/Src/stm32wbxx_ll_usb.c ****   {
 433:Drivers/STM32WBxx_HAL_Driver/Src/stm32wbxx_ll_usb.c ****     /* Multi packet transfer */
 434:Drivers/STM32WBxx_HAL_Driver/Src/stm32wbxx_ll_usb.c ****     if (ep->xfer_len > ep->maxpacket)
 435:Drivers/STM32WBxx_HAL_Driver/Src/stm32wbxx_ll_usb.c ****     {
 436:Drivers/STM32WBxx_HAL_Driver/Src/stm32wbxx_ll_usb.c ****       len = ep->maxpacket;
 437:Drivers/STM32WBxx_HAL_Driver/Src/stm32wbxx_ll_usb.c ****     }
 438:Drivers/STM32WBxx_HAL_Driver/Src/stm32wbxx_ll_usb.c ****     else
 439:Drivers/STM32WBxx_HAL_Driver/Src/stm32wbxx_ll_usb.c ****     {
 440:Drivers/STM32WBxx_HAL_Driver/Src/stm32wbxx_ll_usb.c ****       len = ep->xfer_len;
 441:Drivers/STM32WBxx_HAL_Driver/Src/stm32wbxx_ll_usb.c ****     }
 442:Drivers/STM32WBxx_HAL_Driver/Src/stm32wbxx_ll_usb.c **** 
 443:Drivers/STM32WBxx_HAL_Driver/Src/stm32wbxx_ll_usb.c ****     /* configure and validate Tx endpoint */
 444:Drivers/STM32WBxx_HAL_Driver/Src/stm32wbxx_ll_usb.c ****     if (ep->doublebuffer == 0U)
 445:Drivers/STM32WBxx_HAL_Driver/Src/stm32wbxx_ll_usb.c ****     {
 446:Drivers/STM32WBxx_HAL_Driver/Src/stm32wbxx_ll_usb.c ****       USB_WritePMA(USBx, ep->xfer_buff, ep->pmaadress, (uint16_t)len);
 447:Drivers/STM32WBxx_HAL_Driver/Src/stm32wbxx_ll_usb.c ****       PCD_SET_EP_TX_CNT(USBx, ep->num, len);
 448:Drivers/STM32WBxx_HAL_Driver/Src/stm32wbxx_ll_usb.c ****     }
 449:Drivers/STM32WBxx_HAL_Driver/Src/stm32wbxx_ll_usb.c **** #if (USE_USB_DOUBLE_BUFFER == 1U)
 450:Drivers/STM32WBxx_HAL_Driver/Src/stm32wbxx_ll_usb.c ****     else
 451:Drivers/STM32WBxx_HAL_Driver/Src/stm32wbxx_ll_usb.c ****     {
 452:Drivers/STM32WBxx_HAL_Driver/Src/stm32wbxx_ll_usb.c ****       /* double buffer bulk management */
 453:Drivers/STM32WBxx_HAL_Driver/Src/stm32wbxx_ll_usb.c ****       if (ep->type == EP_TYPE_BULK)
 454:Drivers/STM32WBxx_HAL_Driver/Src/stm32wbxx_ll_usb.c ****       {
 455:Drivers/STM32WBxx_HAL_Driver/Src/stm32wbxx_ll_usb.c ****         if (ep->xfer_len_db > ep->maxpacket)
 456:Drivers/STM32WBxx_HAL_Driver/Src/stm32wbxx_ll_usb.c ****         {
 457:Drivers/STM32WBxx_HAL_Driver/Src/stm32wbxx_ll_usb.c ****           /* enable double buffer */
 458:Drivers/STM32WBxx_HAL_Driver/Src/stm32wbxx_ll_usb.c ****           PCD_SET_BULK_EP_DBUF(USBx, ep->num);
 459:Drivers/STM32WBxx_HAL_Driver/Src/stm32wbxx_ll_usb.c **** 
 460:Drivers/STM32WBxx_HAL_Driver/Src/stm32wbxx_ll_usb.c ****           /* each Time to write in PMA xfer_len_db will */
 461:Drivers/STM32WBxx_HAL_Driver/Src/stm32wbxx_ll_usb.c ****           ep->xfer_len_db -= len;
 462:Drivers/STM32WBxx_HAL_Driver/Src/stm32wbxx_ll_usb.c **** 
 463:Drivers/STM32WBxx_HAL_Driver/Src/stm32wbxx_ll_usb.c ****           /* Fill the two first buffer in the Buffer0 & Buffer1 */
 464:Drivers/STM32WBxx_HAL_Driver/Src/stm32wbxx_ll_usb.c ****           if ((PCD_GET_ENDPOINT(USBx, ep->num) & USB_EP_DTOG_TX) != 0U)
 465:Drivers/STM32WBxx_HAL_Driver/Src/stm32wbxx_ll_usb.c ****           {
 466:Drivers/STM32WBxx_HAL_Driver/Src/stm32wbxx_ll_usb.c ****             /* Set the Double buffer counter for pmabuffer1 */
 467:Drivers/STM32WBxx_HAL_Driver/Src/stm32wbxx_ll_usb.c ****             PCD_SET_EP_DBUF1_CNT(USBx, ep->num, ep->is_in, len);
 468:Drivers/STM32WBxx_HAL_Driver/Src/stm32wbxx_ll_usb.c ****             pmabuffer = ep->pmaaddr1;
 469:Drivers/STM32WBxx_HAL_Driver/Src/stm32wbxx_ll_usb.c **** 
 470:Drivers/STM32WBxx_HAL_Driver/Src/stm32wbxx_ll_usb.c ****             /* Write the user buffer to USB PMA */
 471:Drivers/STM32WBxx_HAL_Driver/Src/stm32wbxx_ll_usb.c ****             USB_WritePMA(USBx, ep->xfer_buff, pmabuffer, (uint16_t)len);
 472:Drivers/STM32WBxx_HAL_Driver/Src/stm32wbxx_ll_usb.c ****             ep->xfer_buff += len;
 473:Drivers/STM32WBxx_HAL_Driver/Src/stm32wbxx_ll_usb.c **** 
 474:Drivers/STM32WBxx_HAL_Driver/Src/stm32wbxx_ll_usb.c ****             if (ep->xfer_len_db > ep->maxpacket)
 475:Drivers/STM32WBxx_HAL_Driver/Src/stm32wbxx_ll_usb.c ****             {
 476:Drivers/STM32WBxx_HAL_Driver/Src/stm32wbxx_ll_usb.c ****               ep->xfer_len_db -= len;
 477:Drivers/STM32WBxx_HAL_Driver/Src/stm32wbxx_ll_usb.c ****             }
 478:Drivers/STM32WBxx_HAL_Driver/Src/stm32wbxx_ll_usb.c ****             else
 479:Drivers/STM32WBxx_HAL_Driver/Src/stm32wbxx_ll_usb.c ****             {
 480:Drivers/STM32WBxx_HAL_Driver/Src/stm32wbxx_ll_usb.c ****               len = ep->xfer_len_db;
 481:Drivers/STM32WBxx_HAL_Driver/Src/stm32wbxx_ll_usb.c ****               ep->xfer_len_db = 0U;
ARM GAS  C:\Users\Nathan\AppData\Local\Temp\ccuhR5Xd.s 			page 44


 482:Drivers/STM32WBxx_HAL_Driver/Src/stm32wbxx_ll_usb.c ****             }
 483:Drivers/STM32WBxx_HAL_Driver/Src/stm32wbxx_ll_usb.c **** 
 484:Drivers/STM32WBxx_HAL_Driver/Src/stm32wbxx_ll_usb.c ****             /* Set the Double buffer counter for pmabuffer0 */
 485:Drivers/STM32WBxx_HAL_Driver/Src/stm32wbxx_ll_usb.c ****             PCD_SET_EP_DBUF0_CNT(USBx, ep->num, ep->is_in, len);
 486:Drivers/STM32WBxx_HAL_Driver/Src/stm32wbxx_ll_usb.c ****             pmabuffer = ep->pmaaddr0;
 487:Drivers/STM32WBxx_HAL_Driver/Src/stm32wbxx_ll_usb.c **** 
 488:Drivers/STM32WBxx_HAL_Driver/Src/stm32wbxx_ll_usb.c ****             /* Write the user buffer to USB PMA */
 489:Drivers/STM32WBxx_HAL_Driver/Src/stm32wbxx_ll_usb.c ****             USB_WritePMA(USBx, ep->xfer_buff, pmabuffer, (uint16_t)len);
 490:Drivers/STM32WBxx_HAL_Driver/Src/stm32wbxx_ll_usb.c ****           }
 491:Drivers/STM32WBxx_HAL_Driver/Src/stm32wbxx_ll_usb.c ****           else
 492:Drivers/STM32WBxx_HAL_Driver/Src/stm32wbxx_ll_usb.c ****           {
 493:Drivers/STM32WBxx_HAL_Driver/Src/stm32wbxx_ll_usb.c ****             /* Set the Double buffer counter for pmabuffer0 */
 494:Drivers/STM32WBxx_HAL_Driver/Src/stm32wbxx_ll_usb.c ****             PCD_SET_EP_DBUF0_CNT(USBx, ep->num, ep->is_in, len);
 495:Drivers/STM32WBxx_HAL_Driver/Src/stm32wbxx_ll_usb.c ****             pmabuffer = ep->pmaaddr0;
 496:Drivers/STM32WBxx_HAL_Driver/Src/stm32wbxx_ll_usb.c **** 
 497:Drivers/STM32WBxx_HAL_Driver/Src/stm32wbxx_ll_usb.c ****             /* Write the user buffer to USB PMA */
 498:Drivers/STM32WBxx_HAL_Driver/Src/stm32wbxx_ll_usb.c ****             USB_WritePMA(USBx, ep->xfer_buff, pmabuffer, (uint16_t)len);
 499:Drivers/STM32WBxx_HAL_Driver/Src/stm32wbxx_ll_usb.c ****             ep->xfer_buff += len;
 500:Drivers/STM32WBxx_HAL_Driver/Src/stm32wbxx_ll_usb.c **** 
 501:Drivers/STM32WBxx_HAL_Driver/Src/stm32wbxx_ll_usb.c ****             if (ep->xfer_len_db > ep->maxpacket)
 502:Drivers/STM32WBxx_HAL_Driver/Src/stm32wbxx_ll_usb.c ****             {
 503:Drivers/STM32WBxx_HAL_Driver/Src/stm32wbxx_ll_usb.c ****               ep->xfer_len_db -= len;
 504:Drivers/STM32WBxx_HAL_Driver/Src/stm32wbxx_ll_usb.c ****             }
 505:Drivers/STM32WBxx_HAL_Driver/Src/stm32wbxx_ll_usb.c ****             else
 506:Drivers/STM32WBxx_HAL_Driver/Src/stm32wbxx_ll_usb.c ****             {
 507:Drivers/STM32WBxx_HAL_Driver/Src/stm32wbxx_ll_usb.c ****               len = ep->xfer_len_db;
 508:Drivers/STM32WBxx_HAL_Driver/Src/stm32wbxx_ll_usb.c ****               ep->xfer_len_db = 0U;
 509:Drivers/STM32WBxx_HAL_Driver/Src/stm32wbxx_ll_usb.c ****             }
 510:Drivers/STM32WBxx_HAL_Driver/Src/stm32wbxx_ll_usb.c **** 
 511:Drivers/STM32WBxx_HAL_Driver/Src/stm32wbxx_ll_usb.c ****             /* Set the Double buffer counter for pmabuffer1 */
 512:Drivers/STM32WBxx_HAL_Driver/Src/stm32wbxx_ll_usb.c ****             PCD_SET_EP_DBUF1_CNT(USBx, ep->num, ep->is_in, len);
 513:Drivers/STM32WBxx_HAL_Driver/Src/stm32wbxx_ll_usb.c ****             pmabuffer = ep->pmaaddr1;
 514:Drivers/STM32WBxx_HAL_Driver/Src/stm32wbxx_ll_usb.c **** 
 515:Drivers/STM32WBxx_HAL_Driver/Src/stm32wbxx_ll_usb.c ****             /* Write the user buffer to USB PMA */
 516:Drivers/STM32WBxx_HAL_Driver/Src/stm32wbxx_ll_usb.c ****             USB_WritePMA(USBx, ep->xfer_buff, pmabuffer, (uint16_t)len);
 517:Drivers/STM32WBxx_HAL_Driver/Src/stm32wbxx_ll_usb.c ****           }
 518:Drivers/STM32WBxx_HAL_Driver/Src/stm32wbxx_ll_usb.c ****         }
 519:Drivers/STM32WBxx_HAL_Driver/Src/stm32wbxx_ll_usb.c ****         /* auto Switch to single buffer mode when transfer <Mps no need to manage in double buffer 
 520:Drivers/STM32WBxx_HAL_Driver/Src/stm32wbxx_ll_usb.c ****         else
 521:Drivers/STM32WBxx_HAL_Driver/Src/stm32wbxx_ll_usb.c ****         {
 522:Drivers/STM32WBxx_HAL_Driver/Src/stm32wbxx_ll_usb.c ****           len = ep->xfer_len_db;
 523:Drivers/STM32WBxx_HAL_Driver/Src/stm32wbxx_ll_usb.c **** 
 524:Drivers/STM32WBxx_HAL_Driver/Src/stm32wbxx_ll_usb.c ****           /* disable double buffer mode for Bulk endpoint */
 525:Drivers/STM32WBxx_HAL_Driver/Src/stm32wbxx_ll_usb.c ****           PCD_CLEAR_BULK_EP_DBUF(USBx, ep->num);
 526:Drivers/STM32WBxx_HAL_Driver/Src/stm32wbxx_ll_usb.c **** 
 527:Drivers/STM32WBxx_HAL_Driver/Src/stm32wbxx_ll_usb.c ****           /* Set Tx count with nbre of byte to be transmitted */
 528:Drivers/STM32WBxx_HAL_Driver/Src/stm32wbxx_ll_usb.c ****           PCD_SET_EP_TX_CNT(USBx, ep->num, len);
 529:Drivers/STM32WBxx_HAL_Driver/Src/stm32wbxx_ll_usb.c ****           pmabuffer = ep->pmaaddr0;
 530:Drivers/STM32WBxx_HAL_Driver/Src/stm32wbxx_ll_usb.c **** 
 531:Drivers/STM32WBxx_HAL_Driver/Src/stm32wbxx_ll_usb.c ****           /* Write the user buffer to USB PMA */
 532:Drivers/STM32WBxx_HAL_Driver/Src/stm32wbxx_ll_usb.c ****           USB_WritePMA(USBx, ep->xfer_buff, pmabuffer, (uint16_t)len);
 533:Drivers/STM32WBxx_HAL_Driver/Src/stm32wbxx_ll_usb.c ****         }
 534:Drivers/STM32WBxx_HAL_Driver/Src/stm32wbxx_ll_usb.c ****       }
 535:Drivers/STM32WBxx_HAL_Driver/Src/stm32wbxx_ll_usb.c ****       else /* Manage isochronous double buffer IN mode */
 536:Drivers/STM32WBxx_HAL_Driver/Src/stm32wbxx_ll_usb.c ****       {
 537:Drivers/STM32WBxx_HAL_Driver/Src/stm32wbxx_ll_usb.c ****         /* Each Time to write in PMA xfer_len_db will */
 538:Drivers/STM32WBxx_HAL_Driver/Src/stm32wbxx_ll_usb.c ****         ep->xfer_len_db -= len;
ARM GAS  C:\Users\Nathan\AppData\Local\Temp\ccuhR5Xd.s 			page 45


 539:Drivers/STM32WBxx_HAL_Driver/Src/stm32wbxx_ll_usb.c **** 
 540:Drivers/STM32WBxx_HAL_Driver/Src/stm32wbxx_ll_usb.c ****         /* Fill the data buffer */
 541:Drivers/STM32WBxx_HAL_Driver/Src/stm32wbxx_ll_usb.c ****         if ((PCD_GET_ENDPOINT(USBx, ep->num) & USB_EP_DTOG_TX) != 0U)
 542:Drivers/STM32WBxx_HAL_Driver/Src/stm32wbxx_ll_usb.c ****         {
 543:Drivers/STM32WBxx_HAL_Driver/Src/stm32wbxx_ll_usb.c ****           /* Set the Double buffer counter for pmabuffer1 */
 544:Drivers/STM32WBxx_HAL_Driver/Src/stm32wbxx_ll_usb.c ****           PCD_SET_EP_DBUF1_CNT(USBx, ep->num, ep->is_in, len);
 545:Drivers/STM32WBxx_HAL_Driver/Src/stm32wbxx_ll_usb.c ****           pmabuffer = ep->pmaaddr1;
 546:Drivers/STM32WBxx_HAL_Driver/Src/stm32wbxx_ll_usb.c **** 
 547:Drivers/STM32WBxx_HAL_Driver/Src/stm32wbxx_ll_usb.c ****           /* Write the user buffer to USB PMA */
 548:Drivers/STM32WBxx_HAL_Driver/Src/stm32wbxx_ll_usb.c ****           USB_WritePMA(USBx, ep->xfer_buff, pmabuffer, (uint16_t)len);
 549:Drivers/STM32WBxx_HAL_Driver/Src/stm32wbxx_ll_usb.c ****         }
 550:Drivers/STM32WBxx_HAL_Driver/Src/stm32wbxx_ll_usb.c ****         else
 551:Drivers/STM32WBxx_HAL_Driver/Src/stm32wbxx_ll_usb.c ****         {
 552:Drivers/STM32WBxx_HAL_Driver/Src/stm32wbxx_ll_usb.c ****           /* Set the Double buffer counter for pmabuffer0 */
 553:Drivers/STM32WBxx_HAL_Driver/Src/stm32wbxx_ll_usb.c ****           PCD_SET_EP_DBUF0_CNT(USBx, ep->num, ep->is_in, len);
 554:Drivers/STM32WBxx_HAL_Driver/Src/stm32wbxx_ll_usb.c ****           pmabuffer = ep->pmaaddr0;
 555:Drivers/STM32WBxx_HAL_Driver/Src/stm32wbxx_ll_usb.c **** 
 556:Drivers/STM32WBxx_HAL_Driver/Src/stm32wbxx_ll_usb.c ****           /* Write the user buffer to USB PMA */
 557:Drivers/STM32WBxx_HAL_Driver/Src/stm32wbxx_ll_usb.c ****           USB_WritePMA(USBx, ep->xfer_buff, pmabuffer, (uint16_t)len);
 558:Drivers/STM32WBxx_HAL_Driver/Src/stm32wbxx_ll_usb.c ****         }
 559:Drivers/STM32WBxx_HAL_Driver/Src/stm32wbxx_ll_usb.c ****       }
 560:Drivers/STM32WBxx_HAL_Driver/Src/stm32wbxx_ll_usb.c ****     }
 561:Drivers/STM32WBxx_HAL_Driver/Src/stm32wbxx_ll_usb.c **** #endif /* (USE_USB_DOUBLE_BUFFER == 1U) */
 562:Drivers/STM32WBxx_HAL_Driver/Src/stm32wbxx_ll_usb.c **** 
 563:Drivers/STM32WBxx_HAL_Driver/Src/stm32wbxx_ll_usb.c ****     PCD_SET_EP_TX_STATUS(USBx, ep->num, USB_EP_TX_VALID);
 564:Drivers/STM32WBxx_HAL_Driver/Src/stm32wbxx_ll_usb.c ****   }
 565:Drivers/STM32WBxx_HAL_Driver/Src/stm32wbxx_ll_usb.c ****   else /* OUT endpoint */
 566:Drivers/STM32WBxx_HAL_Driver/Src/stm32wbxx_ll_usb.c ****   {
 567:Drivers/STM32WBxx_HAL_Driver/Src/stm32wbxx_ll_usb.c ****     if (ep->doublebuffer == 0U)
 568:Drivers/STM32WBxx_HAL_Driver/Src/stm32wbxx_ll_usb.c ****     {
 569:Drivers/STM32WBxx_HAL_Driver/Src/stm32wbxx_ll_usb.c ****       if ((ep->xfer_len == 0U) && (ep->type == EP_TYPE_CTRL))
 570:Drivers/STM32WBxx_HAL_Driver/Src/stm32wbxx_ll_usb.c ****       {
 571:Drivers/STM32WBxx_HAL_Driver/Src/stm32wbxx_ll_usb.c ****         /* This is a status out stage set the OUT_STATUS */
 572:Drivers/STM32WBxx_HAL_Driver/Src/stm32wbxx_ll_usb.c ****         PCD_SET_OUT_STATUS(USBx, ep->num);
 573:Drivers/STM32WBxx_HAL_Driver/Src/stm32wbxx_ll_usb.c ****       }
 574:Drivers/STM32WBxx_HAL_Driver/Src/stm32wbxx_ll_usb.c ****       else
 575:Drivers/STM32WBxx_HAL_Driver/Src/stm32wbxx_ll_usb.c ****       {
 576:Drivers/STM32WBxx_HAL_Driver/Src/stm32wbxx_ll_usb.c ****         PCD_CLEAR_OUT_STATUS(USBx, ep->num);
 577:Drivers/STM32WBxx_HAL_Driver/Src/stm32wbxx_ll_usb.c ****       }
 578:Drivers/STM32WBxx_HAL_Driver/Src/stm32wbxx_ll_usb.c **** 
 579:Drivers/STM32WBxx_HAL_Driver/Src/stm32wbxx_ll_usb.c ****       /* Multi packet transfer */
 580:Drivers/STM32WBxx_HAL_Driver/Src/stm32wbxx_ll_usb.c ****       if (ep->xfer_len > ep->maxpacket)
 581:Drivers/STM32WBxx_HAL_Driver/Src/stm32wbxx_ll_usb.c ****       {
 582:Drivers/STM32WBxx_HAL_Driver/Src/stm32wbxx_ll_usb.c ****         ep->xfer_len -= ep->maxpacket;
 583:Drivers/STM32WBxx_HAL_Driver/Src/stm32wbxx_ll_usb.c ****       }
 584:Drivers/STM32WBxx_HAL_Driver/Src/stm32wbxx_ll_usb.c ****       else
 585:Drivers/STM32WBxx_HAL_Driver/Src/stm32wbxx_ll_usb.c ****       {
 586:Drivers/STM32WBxx_HAL_Driver/Src/stm32wbxx_ll_usb.c ****         ep->xfer_len = 0U;
 587:Drivers/STM32WBxx_HAL_Driver/Src/stm32wbxx_ll_usb.c ****       }
 588:Drivers/STM32WBxx_HAL_Driver/Src/stm32wbxx_ll_usb.c ****     }
 589:Drivers/STM32WBxx_HAL_Driver/Src/stm32wbxx_ll_usb.c **** #if (USE_USB_DOUBLE_BUFFER == 1U)
 590:Drivers/STM32WBxx_HAL_Driver/Src/stm32wbxx_ll_usb.c ****     else
 591:Drivers/STM32WBxx_HAL_Driver/Src/stm32wbxx_ll_usb.c ****     {
 592:Drivers/STM32WBxx_HAL_Driver/Src/stm32wbxx_ll_usb.c ****       /* First Transfer Coming From HAL_PCD_EP_Receive & From ISR */
 593:Drivers/STM32WBxx_HAL_Driver/Src/stm32wbxx_ll_usb.c ****       /* Set the Double buffer counter */
 594:Drivers/STM32WBxx_HAL_Driver/Src/stm32wbxx_ll_usb.c ****       if (ep->type == EP_TYPE_BULK)
 595:Drivers/STM32WBxx_HAL_Driver/Src/stm32wbxx_ll_usb.c ****       {
ARM GAS  C:\Users\Nathan\AppData\Local\Temp\ccuhR5Xd.s 			page 46


 596:Drivers/STM32WBxx_HAL_Driver/Src/stm32wbxx_ll_usb.c ****         /* Coming from ISR */
 597:Drivers/STM32WBxx_HAL_Driver/Src/stm32wbxx_ll_usb.c ****         if (ep->xfer_count != 0U)
 598:Drivers/STM32WBxx_HAL_Driver/Src/stm32wbxx_ll_usb.c ****         {
 599:Drivers/STM32WBxx_HAL_Driver/Src/stm32wbxx_ll_usb.c ****           /* Update last value to check if there is blocking state */
 600:Drivers/STM32WBxx_HAL_Driver/Src/stm32wbxx_ll_usb.c ****           wEPVal = PCD_GET_ENDPOINT(USBx, ep->num);
 601:Drivers/STM32WBxx_HAL_Driver/Src/stm32wbxx_ll_usb.c **** 
 602:Drivers/STM32WBxx_HAL_Driver/Src/stm32wbxx_ll_usb.c ****           /* Blocking State */
 603:Drivers/STM32WBxx_HAL_Driver/Src/stm32wbxx_ll_usb.c ****           if ((((wEPVal & USB_EP_DTOG_RX) != 0U) && ((wEPVal & USB_EP_DTOG_TX) != 0U)) ||
 604:Drivers/STM32WBxx_HAL_Driver/Src/stm32wbxx_ll_usb.c ****               (((wEPVal & USB_EP_DTOG_RX) == 0U) && ((wEPVal & USB_EP_DTOG_TX) == 0U)))
 605:Drivers/STM32WBxx_HAL_Driver/Src/stm32wbxx_ll_usb.c ****           {
 606:Drivers/STM32WBxx_HAL_Driver/Src/stm32wbxx_ll_usb.c ****             PCD_FREE_USER_BUFFER(USBx, ep->num, 0U);
 607:Drivers/STM32WBxx_HAL_Driver/Src/stm32wbxx_ll_usb.c ****           }
 608:Drivers/STM32WBxx_HAL_Driver/Src/stm32wbxx_ll_usb.c ****         }
 609:Drivers/STM32WBxx_HAL_Driver/Src/stm32wbxx_ll_usb.c ****       }
 610:Drivers/STM32WBxx_HAL_Driver/Src/stm32wbxx_ll_usb.c ****       /* iso out double */
 611:Drivers/STM32WBxx_HAL_Driver/Src/stm32wbxx_ll_usb.c ****       else if (ep->type == EP_TYPE_ISOC)
 612:Drivers/STM32WBxx_HAL_Driver/Src/stm32wbxx_ll_usb.c ****       {
 613:Drivers/STM32WBxx_HAL_Driver/Src/stm32wbxx_ll_usb.c ****         /* Only single packet transfer supported in FS */
 614:Drivers/STM32WBxx_HAL_Driver/Src/stm32wbxx_ll_usb.c ****         ep->xfer_len = 0U;
 615:Drivers/STM32WBxx_HAL_Driver/Src/stm32wbxx_ll_usb.c ****       }
 616:Drivers/STM32WBxx_HAL_Driver/Src/stm32wbxx_ll_usb.c ****       else
 617:Drivers/STM32WBxx_HAL_Driver/Src/stm32wbxx_ll_usb.c ****       {
 618:Drivers/STM32WBxx_HAL_Driver/Src/stm32wbxx_ll_usb.c ****         return HAL_ERROR;
 619:Drivers/STM32WBxx_HAL_Driver/Src/stm32wbxx_ll_usb.c ****       }
 620:Drivers/STM32WBxx_HAL_Driver/Src/stm32wbxx_ll_usb.c ****     }
 621:Drivers/STM32WBxx_HAL_Driver/Src/stm32wbxx_ll_usb.c **** #endif /* (USE_USB_DOUBLE_BUFFER == 1U) */
 622:Drivers/STM32WBxx_HAL_Driver/Src/stm32wbxx_ll_usb.c **** 
 623:Drivers/STM32WBxx_HAL_Driver/Src/stm32wbxx_ll_usb.c ****     PCD_SET_EP_RX_STATUS(USBx, ep->num, USB_EP_RX_VALID);
 624:Drivers/STM32WBxx_HAL_Driver/Src/stm32wbxx_ll_usb.c ****   }
 625:Drivers/STM32WBxx_HAL_Driver/Src/stm32wbxx_ll_usb.c **** 
 626:Drivers/STM32WBxx_HAL_Driver/Src/stm32wbxx_ll_usb.c ****   return HAL_OK;
 627:Drivers/STM32WBxx_HAL_Driver/Src/stm32wbxx_ll_usb.c **** }
 628:Drivers/STM32WBxx_HAL_Driver/Src/stm32wbxx_ll_usb.c **** 
 629:Drivers/STM32WBxx_HAL_Driver/Src/stm32wbxx_ll_usb.c **** 
 630:Drivers/STM32WBxx_HAL_Driver/Src/stm32wbxx_ll_usb.c **** /**
 631:Drivers/STM32WBxx_HAL_Driver/Src/stm32wbxx_ll_usb.c ****   * @brief  USB_EPSetStall set a stall condition over an EP
 632:Drivers/STM32WBxx_HAL_Driver/Src/stm32wbxx_ll_usb.c ****   * @param  USBx Selected device
 633:Drivers/STM32WBxx_HAL_Driver/Src/stm32wbxx_ll_usb.c ****   * @param  ep pointer to endpoint structure
 634:Drivers/STM32WBxx_HAL_Driver/Src/stm32wbxx_ll_usb.c ****   * @retval HAL status
 635:Drivers/STM32WBxx_HAL_Driver/Src/stm32wbxx_ll_usb.c ****   */
 636:Drivers/STM32WBxx_HAL_Driver/Src/stm32wbxx_ll_usb.c **** HAL_StatusTypeDef USB_EPSetStall(USB_TypeDef *USBx, USB_EPTypeDef *ep)
 637:Drivers/STM32WBxx_HAL_Driver/Src/stm32wbxx_ll_usb.c **** {
 1768              		.loc 1 637 1 is_stmt 1 view -0
 1769              		.cfi_startproc
 1770              		@ args = 0, pretend = 0, frame = 0
 1771              		@ frame_needed = 0, uses_anonymous_args = 0
 1772              		@ link register save eliminated.
 638:Drivers/STM32WBxx_HAL_Driver/Src/stm32wbxx_ll_usb.c ****   if (ep->is_in != 0U)
 1773              		.loc 1 638 3 view .LVU621
 1774              		.loc 1 638 9 is_stmt 0 view .LVU622
 1775 0000 4B78     		ldrb	r3, [r1, #1]	@ zero_extendqisi2
 1776              		.loc 1 638 6 view .LVU623
 1777 0002 8BB1     		cbz	r3, .L68
 639:Drivers/STM32WBxx_HAL_Driver/Src/stm32wbxx_ll_usb.c ****   {
 640:Drivers/STM32WBxx_HAL_Driver/Src/stm32wbxx_ll_usb.c ****     PCD_SET_EP_TX_STATUS(USBx, ep->num, USB_EP_TX_STALL);
 1778              		.loc 1 640 5 is_stmt 1 view .LVU624
 1779              	.LBB66:
ARM GAS  C:\Users\Nathan\AppData\Local\Temp\ccuhR5Xd.s 			page 47


 1780              		.loc 1 640 5 view .LVU625
 1781              		.loc 1 640 5 view .LVU626
 1782 0004 0A78     		ldrb	r2, [r1]	@ zero_extendqisi2
 1783 0006 30F82230 		ldrh	r3, [r0, r2, lsl #2]
 1784 000a 9BB2     		uxth	r3, r3
 1785 000c 23F4E043 		bic	r3, r3, #28672
 1786 0010 23F04003 		bic	r3, r3, #64
 1787              	.LVL207:
 1788              		.loc 1 640 5 view .LVU627
 1789              		.loc 1 640 5 discriminator 1 view .LVU628
 1790 0014 83F01003 		eor	r3, r3, #16
 1791              	.LVL208:
 1792              		.loc 1 640 5 discriminator 3 view .LVU629
 1793              		.loc 1 640 5 discriminator 6 view .LVU630
 1794 0018 43F40043 		orr	r3, r3, #32768
 1795              	.LVL209:
 1796              		.loc 1 640 5 is_stmt 0 discriminator 6 view .LVU631
 1797 001c 43F08003 		orr	r3, r3, #128
 1798 0020 20F82230 		strh	r3, [r0, r2, lsl #2]	@ movhi
 1799              	.LBE66:
 1800              		.loc 1 640 5 is_stmt 1 view .LVU632
 1801              	.LVL210:
 1802              	.L69:
 641:Drivers/STM32WBxx_HAL_Driver/Src/stm32wbxx_ll_usb.c ****   }
 642:Drivers/STM32WBxx_HAL_Driver/Src/stm32wbxx_ll_usb.c ****   else
 643:Drivers/STM32WBxx_HAL_Driver/Src/stm32wbxx_ll_usb.c ****   {
 644:Drivers/STM32WBxx_HAL_Driver/Src/stm32wbxx_ll_usb.c ****     PCD_SET_EP_RX_STATUS(USBx, ep->num, USB_EP_RX_STALL);
 1803              		.loc 1 644 5 view .LVU633
 645:Drivers/STM32WBxx_HAL_Driver/Src/stm32wbxx_ll_usb.c ****   }
 646:Drivers/STM32WBxx_HAL_Driver/Src/stm32wbxx_ll_usb.c **** 
 647:Drivers/STM32WBxx_HAL_Driver/Src/stm32wbxx_ll_usb.c ****   return HAL_OK;
 1804              		.loc 1 647 3 view .LVU634
 648:Drivers/STM32WBxx_HAL_Driver/Src/stm32wbxx_ll_usb.c **** }
 1805              		.loc 1 648 1 is_stmt 0 view .LVU635
 1806 0024 0020     		movs	r0, #0
 1807              	.LVL211:
 1808              		.loc 1 648 1 view .LVU636
 1809 0026 7047     		bx	lr
 1810              	.LVL212:
 1811              	.L68:
 644:Drivers/STM32WBxx_HAL_Driver/Src/stm32wbxx_ll_usb.c ****   }
 1812              		.loc 1 644 5 is_stmt 1 view .LVU637
 1813              	.LBB67:
 644:Drivers/STM32WBxx_HAL_Driver/Src/stm32wbxx_ll_usb.c ****   }
 1814              		.loc 1 644 5 view .LVU638
 644:Drivers/STM32WBxx_HAL_Driver/Src/stm32wbxx_ll_usb.c ****   }
 1815              		.loc 1 644 5 view .LVU639
 1816 0028 0A78     		ldrb	r2, [r1]	@ zero_extendqisi2
 1817 002a 30F82230 		ldrh	r3, [r0, r2, lsl #2]
 1818 002e 9BB2     		uxth	r3, r3
 1819 0030 23F48043 		bic	r3, r3, #16384
 1820 0034 23F07003 		bic	r3, r3, #112
 1821              	.LVL213:
 644:Drivers/STM32WBxx_HAL_Driver/Src/stm32wbxx_ll_usb.c ****   }
 1822              		.loc 1 644 5 view .LVU640
 644:Drivers/STM32WBxx_HAL_Driver/Src/stm32wbxx_ll_usb.c ****   }
 1823              		.loc 1 644 5 discriminator 1 view .LVU641
ARM GAS  C:\Users\Nathan\AppData\Local\Temp\ccuhR5Xd.s 			page 48


 1824 0038 83F48053 		eor	r3, r3, #4096
 1825              	.LVL214:
 644:Drivers/STM32WBxx_HAL_Driver/Src/stm32wbxx_ll_usb.c ****   }
 1826              		.loc 1 644 5 discriminator 3 view .LVU642
 644:Drivers/STM32WBxx_HAL_Driver/Src/stm32wbxx_ll_usb.c ****   }
 1827              		.loc 1 644 5 discriminator 6 view .LVU643
 1828 003c 43F40043 		orr	r3, r3, #32768
 1829              	.LVL215:
 644:Drivers/STM32WBxx_HAL_Driver/Src/stm32wbxx_ll_usb.c ****   }
 1830              		.loc 1 644 5 is_stmt 0 discriminator 6 view .LVU644
 1831 0040 43F08003 		orr	r3, r3, #128
 1832 0044 20F82230 		strh	r3, [r0, r2, lsl #2]	@ movhi
 1833 0048 ECE7     		b	.L69
 1834              	.LBE67:
 1835              		.cfi_endproc
 1836              	.LFE960:
 1838              		.section	.text.USB_EPClearStall,"ax",%progbits
 1839              		.align	1
 1840              		.global	USB_EPClearStall
 1841              		.syntax unified
 1842              		.thumb
 1843              		.thumb_func
 1845              	USB_EPClearStall:
 1846              	.LVL216:
 1847              	.LFB961:
 649:Drivers/STM32WBxx_HAL_Driver/Src/stm32wbxx_ll_usb.c **** 
 650:Drivers/STM32WBxx_HAL_Driver/Src/stm32wbxx_ll_usb.c **** /**
 651:Drivers/STM32WBxx_HAL_Driver/Src/stm32wbxx_ll_usb.c ****   * @brief  USB_EPClearStall Clear a stall condition over an EP
 652:Drivers/STM32WBxx_HAL_Driver/Src/stm32wbxx_ll_usb.c ****   * @param  USBx Selected device
 653:Drivers/STM32WBxx_HAL_Driver/Src/stm32wbxx_ll_usb.c ****   * @param  ep pointer to endpoint structure
 654:Drivers/STM32WBxx_HAL_Driver/Src/stm32wbxx_ll_usb.c ****   * @retval HAL status
 655:Drivers/STM32WBxx_HAL_Driver/Src/stm32wbxx_ll_usb.c ****   */
 656:Drivers/STM32WBxx_HAL_Driver/Src/stm32wbxx_ll_usb.c **** HAL_StatusTypeDef USB_EPClearStall(USB_TypeDef *USBx, USB_EPTypeDef *ep)
 657:Drivers/STM32WBxx_HAL_Driver/Src/stm32wbxx_ll_usb.c **** {
 1848              		.loc 1 657 1 is_stmt 1 view -0
 1849              		.cfi_startproc
 1850              		@ args = 0, pretend = 0, frame = 0
 1851              		@ frame_needed = 0, uses_anonymous_args = 0
 1852              		@ link register save eliminated.
 658:Drivers/STM32WBxx_HAL_Driver/Src/stm32wbxx_ll_usb.c ****   if (ep->is_in != 0U)
 1853              		.loc 1 658 3 view .LVU646
 1854              		.loc 1 658 9 is_stmt 0 view .LVU647
 1855 0000 4B78     		ldrb	r3, [r1, #1]	@ zero_extendqisi2
 1856              		.loc 1 658 6 view .LVU648
 1857 0002 33B3     		cbz	r3, .L71
 659:Drivers/STM32WBxx_HAL_Driver/Src/stm32wbxx_ll_usb.c ****   {
 660:Drivers/STM32WBxx_HAL_Driver/Src/stm32wbxx_ll_usb.c ****     PCD_CLEAR_TX_DTOG(USBx, ep->num);
 1858              		.loc 1 660 5 is_stmt 1 view .LVU649
 1859              	.LBB68:
 1860              		.loc 1 660 5 view .LVU650
 1861              		.loc 1 660 5 view .LVU651
 1862 0004 0A78     		ldrb	r2, [r1]	@ zero_extendqisi2
 1863 0006 30F82230 		ldrh	r3, [r0, r2, lsl #2]
 1864              	.LVL217:
 1865              		.loc 1 660 5 view .LVU652
 1866 000a 13F0400F 		tst	r3, #64
 1867 000e 0CD0     		beq	.L72
ARM GAS  C:\Users\Nathan\AppData\Local\Temp\ccuhR5Xd.s 			page 49


 1868              		.loc 1 660 5 discriminator 1 view .LVU653
 1869              	.LBB69:
 1870              		.loc 1 660 5 discriminator 1 view .LVU654
 1871              		.loc 1 660 5 discriminator 1 view .LVU655
 1872 0010 30F82230 		ldrh	r3, [r0, r2, lsl #2]
 1873              	.LVL218:
 1874              		.loc 1 660 5 is_stmt 0 discriminator 1 view .LVU656
 1875 0014 9BB2     		uxth	r3, r3
 1876 0016 23F4E043 		bic	r3, r3, #28672
 1877 001a 23F07003 		bic	r3, r3, #112
 1878              	.LVL219:
 1879              		.loc 1 660 5 is_stmt 1 view .LVU657
 1880              		.loc 1 660 5 is_stmt 0 discriminator 1 view .LVU658
 1881 001e 43F40043 		orr	r3, r3, #32768
 1882              	.LVL220:
 1883              		.loc 1 660 5 discriminator 1 view .LVU659
 1884 0022 43F0C003 		orr	r3, r3, #192
 1885 0026 20F82230 		strh	r3, [r0, r2, lsl #2]	@ movhi
 1886              	.LVL221:
 1887              	.L72:
 1888              		.loc 1 660 5 discriminator 1 view .LVU660
 1889              	.LBE69:
 1890              		.loc 1 660 5 is_stmt 1 view .LVU661
 1891              	.LBE68:
 1892              		.loc 1 660 5 view .LVU662
 661:Drivers/STM32WBxx_HAL_Driver/Src/stm32wbxx_ll_usb.c **** 
 662:Drivers/STM32WBxx_HAL_Driver/Src/stm32wbxx_ll_usb.c ****     if (ep->type != EP_TYPE_ISOC)
 1893              		.loc 1 662 5 view .LVU663
 1894              		.loc 1 662 11 is_stmt 0 view .LVU664
 1895 002a CB78     		ldrb	r3, [r1, #3]	@ zero_extendqisi2
 1896              		.loc 1 662 8 view .LVU665
 1897 002c 012B     		cmp	r3, #1
 1898 002e 33D0     		beq	.L73
 663:Drivers/STM32WBxx_HAL_Driver/Src/stm32wbxx_ll_usb.c ****     {
 664:Drivers/STM32WBxx_HAL_Driver/Src/stm32wbxx_ll_usb.c ****       /* Configure NAK status for the Endpoint */
 665:Drivers/STM32WBxx_HAL_Driver/Src/stm32wbxx_ll_usb.c ****       PCD_SET_EP_TX_STATUS(USBx, ep->num, USB_EP_TX_NAK);
 1899              		.loc 1 665 7 is_stmt 1 view .LVU666
 1900              	.LBB70:
 1901              		.loc 1 665 7 view .LVU667
 1902              		.loc 1 665 7 view .LVU668
 1903 0030 0A78     		ldrb	r2, [r1]	@ zero_extendqisi2
 1904 0032 30F82230 		ldrh	r3, [r0, r2, lsl #2]
 1905 0036 9BB2     		uxth	r3, r3
 1906 0038 23F4E043 		bic	r3, r3, #28672
 1907 003c 23F04003 		bic	r3, r3, #64
 1908              	.LVL222:
 1909              		.loc 1 665 7 view .LVU669
 1910              		.loc 1 665 7 discriminator 3 view .LVU670
 1911              		.loc 1 665 7 discriminator 4 view .LVU671
 1912 0040 83F02003 		eor	r3, r3, #32
 1913              	.LVL223:
 1914              		.loc 1 665 7 discriminator 6 view .LVU672
 1915 0044 43F40043 		orr	r3, r3, #32768
 1916              	.LVL224:
 1917              		.loc 1 665 7 is_stmt 0 discriminator 6 view .LVU673
 1918 0048 43F08003 		orr	r3, r3, #128
 1919 004c 20F82230 		strh	r3, [r0, r2, lsl #2]	@ movhi
ARM GAS  C:\Users\Nathan\AppData\Local\Temp\ccuhR5Xd.s 			page 50


 1920 0050 22E0     		b	.L73
 1921              	.LVL225:
 1922              	.L71:
 1923              		.loc 1 665 7 discriminator 6 view .LVU674
 1924              	.LBE70:
 666:Drivers/STM32WBxx_HAL_Driver/Src/stm32wbxx_ll_usb.c ****     }
 667:Drivers/STM32WBxx_HAL_Driver/Src/stm32wbxx_ll_usb.c ****   }
 668:Drivers/STM32WBxx_HAL_Driver/Src/stm32wbxx_ll_usb.c ****   else
 669:Drivers/STM32WBxx_HAL_Driver/Src/stm32wbxx_ll_usb.c ****   {
 670:Drivers/STM32WBxx_HAL_Driver/Src/stm32wbxx_ll_usb.c ****     PCD_CLEAR_RX_DTOG(USBx, ep->num);
 1925              		.loc 1 670 5 is_stmt 1 view .LVU675
 1926              	.LBB71:
 1927              		.loc 1 670 5 view .LVU676
 1928              		.loc 1 670 5 view .LVU677
 1929 0052 0A78     		ldrb	r2, [r1]	@ zero_extendqisi2
 1930 0054 30F82230 		ldrh	r3, [r0, r2, lsl #2]
 1931              	.LVL226:
 1932              		.loc 1 670 5 view .LVU678
 1933 0058 13F4804F 		tst	r3, #16384
 1934 005c 0CD0     		beq	.L74
 1935              		.loc 1 670 5 discriminator 1 view .LVU679
 1936              	.LBB72:
 1937              		.loc 1 670 5 discriminator 1 view .LVU680
 1938              		.loc 1 670 5 discriminator 1 view .LVU681
 1939 005e 30F82230 		ldrh	r3, [r0, r2, lsl #2]
 1940              	.LVL227:
 1941              		.loc 1 670 5 is_stmt 0 discriminator 1 view .LVU682
 1942 0062 9BB2     		uxth	r3, r3
 1943 0064 23F4E043 		bic	r3, r3, #28672
 1944 0068 23F07003 		bic	r3, r3, #112
 1945              	.LVL228:
 1946              		.loc 1 670 5 is_stmt 1 view .LVU683
 1947              		.loc 1 670 5 is_stmt 0 discriminator 1 view .LVU684
 1948 006c 43F44043 		orr	r3, r3, #49152
 1949              	.LVL229:
 1950              		.loc 1 670 5 discriminator 1 view .LVU685
 1951 0070 43F08003 		orr	r3, r3, #128
 1952 0074 20F82230 		strh	r3, [r0, r2, lsl #2]	@ movhi
 1953              	.LVL230:
 1954              	.L74:
 1955              		.loc 1 670 5 discriminator 1 view .LVU686
 1956              	.LBE72:
 1957              		.loc 1 670 5 is_stmt 1 view .LVU687
 1958              	.LBE71:
 1959              		.loc 1 670 5 view .LVU688
 671:Drivers/STM32WBxx_HAL_Driver/Src/stm32wbxx_ll_usb.c **** 
 672:Drivers/STM32WBxx_HAL_Driver/Src/stm32wbxx_ll_usb.c ****     /* Configure VALID status for the Endpoint */
 673:Drivers/STM32WBxx_HAL_Driver/Src/stm32wbxx_ll_usb.c ****     PCD_SET_EP_RX_STATUS(USBx, ep->num, USB_EP_RX_VALID);
 1960              		.loc 1 673 5 view .LVU689
 1961              	.LBB73:
 1962              		.loc 1 673 5 view .LVU690
 1963              		.loc 1 673 5 view .LVU691
 1964 0078 0A78     		ldrb	r2, [r1]	@ zero_extendqisi2
 1965 007a 30F82230 		ldrh	r3, [r0, r2, lsl #2]
 1966 007e 9BB2     		uxth	r3, r3
 1967 0080 23F48043 		bic	r3, r3, #16384
 1968 0084 23F07003 		bic	r3, r3, #112
ARM GAS  C:\Users\Nathan\AppData\Local\Temp\ccuhR5Xd.s 			page 51


 1969              		.loc 1 673 5 view .LVU692
 1970              		.loc 1 673 5 discriminator 1 view .LVU693
 1971              	.LVL231:
 1972              		.loc 1 673 5 discriminator 3 view .LVU694
 1973              		.loc 1 673 5 discriminator 4 view .LVU695
 1974 0088 83F44053 		eor	r3, r3, #12288
 1975              	.LVL232:
 1976              		.loc 1 673 5 discriminator 6 view .LVU696
 1977 008c 43F40043 		orr	r3, r3, #32768
 1978              	.LVL233:
 1979              		.loc 1 673 5 is_stmt 0 discriminator 6 view .LVU697
 1980 0090 43F08003 		orr	r3, r3, #128
 1981 0094 20F82230 		strh	r3, [r0, r2, lsl #2]	@ movhi
 1982              	.LVL234:
 1983              	.L73:
 1984              		.loc 1 673 5 discriminator 6 view .LVU698
 1985              	.LBE73:
 1986              		.loc 1 673 5 is_stmt 1 view .LVU699
 674:Drivers/STM32WBxx_HAL_Driver/Src/stm32wbxx_ll_usb.c ****   }
 675:Drivers/STM32WBxx_HAL_Driver/Src/stm32wbxx_ll_usb.c **** 
 676:Drivers/STM32WBxx_HAL_Driver/Src/stm32wbxx_ll_usb.c ****   return HAL_OK;
 1987              		.loc 1 676 3 view .LVU700
 677:Drivers/STM32WBxx_HAL_Driver/Src/stm32wbxx_ll_usb.c **** }
 1988              		.loc 1 677 1 is_stmt 0 view .LVU701
 1989 0098 0020     		movs	r0, #0
 1990              	.LVL235:
 1991              		.loc 1 677 1 view .LVU702
 1992 009a 7047     		bx	lr
 1993              		.cfi_endproc
 1994              	.LFE961:
 1996              		.section	.text.USB_EPStopXfer,"ax",%progbits
 1997              		.align	1
 1998              		.global	USB_EPStopXfer
 1999              		.syntax unified
 2000              		.thumb
 2001              		.thumb_func
 2003              	USB_EPStopXfer:
 2004              	.LVL236:
 2005              	.LFB962:
 678:Drivers/STM32WBxx_HAL_Driver/Src/stm32wbxx_ll_usb.c **** 
 679:Drivers/STM32WBxx_HAL_Driver/Src/stm32wbxx_ll_usb.c **** /**
 680:Drivers/STM32WBxx_HAL_Driver/Src/stm32wbxx_ll_usb.c ****    * @brief  USB_EPStoptXfer  Stop transfer on an EP
 681:Drivers/STM32WBxx_HAL_Driver/Src/stm32wbxx_ll_usb.c ****    * @param  USBx  usb device instance
 682:Drivers/STM32WBxx_HAL_Driver/Src/stm32wbxx_ll_usb.c ****    * @param  ep pointer to endpoint structure
 683:Drivers/STM32WBxx_HAL_Driver/Src/stm32wbxx_ll_usb.c ****    * @retval HAL status
 684:Drivers/STM32WBxx_HAL_Driver/Src/stm32wbxx_ll_usb.c ****    */
 685:Drivers/STM32WBxx_HAL_Driver/Src/stm32wbxx_ll_usb.c **** HAL_StatusTypeDef USB_EPStopXfer(USB_TypeDef *USBx, USB_EPTypeDef *ep)
 686:Drivers/STM32WBxx_HAL_Driver/Src/stm32wbxx_ll_usb.c **** {
 2006              		.loc 1 686 1 is_stmt 1 view -0
 2007              		.cfi_startproc
 2008              		@ args = 0, pretend = 0, frame = 0
 2009              		@ frame_needed = 0, uses_anonymous_args = 0
 2010              		@ link register save eliminated.
 687:Drivers/STM32WBxx_HAL_Driver/Src/stm32wbxx_ll_usb.c ****   /* IN endpoint */
 688:Drivers/STM32WBxx_HAL_Driver/Src/stm32wbxx_ll_usb.c ****   if (ep->is_in == 1U)
 2011              		.loc 1 688 3 view .LVU704
 2012              		.loc 1 688 9 is_stmt 0 view .LVU705
ARM GAS  C:\Users\Nathan\AppData\Local\Temp\ccuhR5Xd.s 			page 52


 2013 0000 4B78     		ldrb	r3, [r1, #1]	@ zero_extendqisi2
 2014              		.loc 1 688 6 view .LVU706
 2015 0002 012B     		cmp	r3, #1
 2016 0004 16D0     		beq	.L80
 689:Drivers/STM32WBxx_HAL_Driver/Src/stm32wbxx_ll_usb.c ****   {
 690:Drivers/STM32WBxx_HAL_Driver/Src/stm32wbxx_ll_usb.c ****     if (ep->doublebuffer == 0U)
 691:Drivers/STM32WBxx_HAL_Driver/Src/stm32wbxx_ll_usb.c ****     {
 692:Drivers/STM32WBxx_HAL_Driver/Src/stm32wbxx_ll_usb.c ****       if (ep->type != EP_TYPE_ISOC)
 693:Drivers/STM32WBxx_HAL_Driver/Src/stm32wbxx_ll_usb.c ****       {
 694:Drivers/STM32WBxx_HAL_Driver/Src/stm32wbxx_ll_usb.c ****         /* Configure NAK status for the Endpoint */
 695:Drivers/STM32WBxx_HAL_Driver/Src/stm32wbxx_ll_usb.c ****         PCD_SET_EP_TX_STATUS(USBx, ep->num, USB_EP_TX_NAK);
 696:Drivers/STM32WBxx_HAL_Driver/Src/stm32wbxx_ll_usb.c ****       }
 697:Drivers/STM32WBxx_HAL_Driver/Src/stm32wbxx_ll_usb.c ****       else
 698:Drivers/STM32WBxx_HAL_Driver/Src/stm32wbxx_ll_usb.c ****       {
 699:Drivers/STM32WBxx_HAL_Driver/Src/stm32wbxx_ll_usb.c ****         /* Configure TX Endpoint to disabled state */
 700:Drivers/STM32WBxx_HAL_Driver/Src/stm32wbxx_ll_usb.c ****         PCD_SET_EP_TX_STATUS(USBx, ep->num, USB_EP_TX_DIS);
 701:Drivers/STM32WBxx_HAL_Driver/Src/stm32wbxx_ll_usb.c ****       }
 702:Drivers/STM32WBxx_HAL_Driver/Src/stm32wbxx_ll_usb.c ****     }
 703:Drivers/STM32WBxx_HAL_Driver/Src/stm32wbxx_ll_usb.c ****   }
 704:Drivers/STM32WBxx_HAL_Driver/Src/stm32wbxx_ll_usb.c ****   else /* OUT endpoint */
 705:Drivers/STM32WBxx_HAL_Driver/Src/stm32wbxx_ll_usb.c ****   {
 706:Drivers/STM32WBxx_HAL_Driver/Src/stm32wbxx_ll_usb.c ****     if (ep->doublebuffer == 0U)
 2017              		.loc 1 706 5 is_stmt 1 view .LVU707
 2018              		.loc 1 706 11 is_stmt 0 view .LVU708
 2019 0006 0B7B     		ldrb	r3, [r1, #12]	@ zero_extendqisi2
 2020              		.loc 1 706 8 view .LVU709
 2021 0008 93B9     		cbnz	r3, .L77
 707:Drivers/STM32WBxx_HAL_Driver/Src/stm32wbxx_ll_usb.c ****     {
 708:Drivers/STM32WBxx_HAL_Driver/Src/stm32wbxx_ll_usb.c ****       if (ep->type != EP_TYPE_ISOC)
 2022              		.loc 1 708 7 is_stmt 1 view .LVU710
 2023              		.loc 1 708 13 is_stmt 0 view .LVU711
 2024 000a CB78     		ldrb	r3, [r1, #3]	@ zero_extendqisi2
 2025              		.loc 1 708 10 view .LVU712
 2026 000c 012B     		cmp	r3, #1
 2027 000e 37D0     		beq	.L79
 709:Drivers/STM32WBxx_HAL_Driver/Src/stm32wbxx_ll_usb.c ****       {
 710:Drivers/STM32WBxx_HAL_Driver/Src/stm32wbxx_ll_usb.c ****         /* Configure NAK status for the Endpoint */
 711:Drivers/STM32WBxx_HAL_Driver/Src/stm32wbxx_ll_usb.c ****         PCD_SET_EP_RX_STATUS(USBx, ep->num, USB_EP_RX_NAK);
 2028              		.loc 1 711 9 is_stmt 1 view .LVU713
 2029              	.LBB74:
 2030              		.loc 1 711 9 view .LVU714
 2031              		.loc 1 711 9 view .LVU715
 2032 0010 0A78     		ldrb	r2, [r1]	@ zero_extendqisi2
 2033 0012 30F82230 		ldrh	r3, [r0, r2, lsl #2]
 2034 0016 9BB2     		uxth	r3, r3
 2035 0018 23F48043 		bic	r3, r3, #16384
 2036 001c 23F07003 		bic	r3, r3, #112
 2037              	.LVL237:
 2038              		.loc 1 711 9 view .LVU716
 2039              		.loc 1 711 9 discriminator 3 view .LVU717
 2040              		.loc 1 711 9 discriminator 4 view .LVU718
 2041 0020 83F40053 		eor	r3, r3, #8192
 2042              	.LVL238:
 2043              		.loc 1 711 9 discriminator 6 view .LVU719
 2044 0024 43F40043 		orr	r3, r3, #32768
 2045              	.LVL239:
 2046              		.loc 1 711 9 is_stmt 0 discriminator 6 view .LVU720
ARM GAS  C:\Users\Nathan\AppData\Local\Temp\ccuhR5Xd.s 			page 53


 2047 0028 43F08003 		orr	r3, r3, #128
 2048 002c 20F82230 		strh	r3, [r0, r2, lsl #2]	@ movhi
 2049              	.LBE74:
 2050              		.loc 1 711 9 is_stmt 1 view .LVU721
 2051              	.LVL240:
 2052              	.L77:
 712:Drivers/STM32WBxx_HAL_Driver/Src/stm32wbxx_ll_usb.c ****       }
 713:Drivers/STM32WBxx_HAL_Driver/Src/stm32wbxx_ll_usb.c ****       else
 714:Drivers/STM32WBxx_HAL_Driver/Src/stm32wbxx_ll_usb.c ****       {
 715:Drivers/STM32WBxx_HAL_Driver/Src/stm32wbxx_ll_usb.c ****         /* Configure RX Endpoint to disabled state */
 716:Drivers/STM32WBxx_HAL_Driver/Src/stm32wbxx_ll_usb.c ****         PCD_SET_EP_RX_STATUS(USBx, ep->num, USB_EP_RX_DIS);
 2053              		.loc 1 716 9 view .LVU722
 717:Drivers/STM32WBxx_HAL_Driver/Src/stm32wbxx_ll_usb.c ****       }
 718:Drivers/STM32WBxx_HAL_Driver/Src/stm32wbxx_ll_usb.c ****     }
 719:Drivers/STM32WBxx_HAL_Driver/Src/stm32wbxx_ll_usb.c ****   }
 720:Drivers/STM32WBxx_HAL_Driver/Src/stm32wbxx_ll_usb.c **** 
 721:Drivers/STM32WBxx_HAL_Driver/Src/stm32wbxx_ll_usb.c ****   return HAL_OK;
 2054              		.loc 1 721 3 view .LVU723
 722:Drivers/STM32WBxx_HAL_Driver/Src/stm32wbxx_ll_usb.c **** }
 2055              		.loc 1 722 1 is_stmt 0 view .LVU724
 2056 0030 0020     		movs	r0, #0
 2057              	.LVL241:
 2058              		.loc 1 722 1 view .LVU725
 2059 0032 7047     		bx	lr
 2060              	.LVL242:
 2061              	.L80:
 690:Drivers/STM32WBxx_HAL_Driver/Src/stm32wbxx_ll_usb.c ****     {
 2062              		.loc 1 690 5 is_stmt 1 view .LVU726
 690:Drivers/STM32WBxx_HAL_Driver/Src/stm32wbxx_ll_usb.c ****     {
 2063              		.loc 1 690 11 is_stmt 0 view .LVU727
 2064 0034 0B7B     		ldrb	r3, [r1, #12]	@ zero_extendqisi2
 690:Drivers/STM32WBxx_HAL_Driver/Src/stm32wbxx_ll_usb.c ****     {
 2065              		.loc 1 690 8 view .LVU728
 2066 0036 002B     		cmp	r3, #0
 2067 0038 FAD1     		bne	.L77
 692:Drivers/STM32WBxx_HAL_Driver/Src/stm32wbxx_ll_usb.c ****       {
 2068              		.loc 1 692 7 is_stmt 1 view .LVU729
 692:Drivers/STM32WBxx_HAL_Driver/Src/stm32wbxx_ll_usb.c ****       {
 2069              		.loc 1 692 13 is_stmt 0 view .LVU730
 2070 003a CB78     		ldrb	r3, [r1, #3]	@ zero_extendqisi2
 692:Drivers/STM32WBxx_HAL_Driver/Src/stm32wbxx_ll_usb.c ****       {
 2071              		.loc 1 692 10 view .LVU731
 2072 003c 012B     		cmp	r3, #1
 2073 003e 10D0     		beq	.L78
 695:Drivers/STM32WBxx_HAL_Driver/Src/stm32wbxx_ll_usb.c ****       }
 2074              		.loc 1 695 9 is_stmt 1 view .LVU732
 2075              	.LBB75:
 695:Drivers/STM32WBxx_HAL_Driver/Src/stm32wbxx_ll_usb.c ****       }
 2076              		.loc 1 695 9 view .LVU733
 695:Drivers/STM32WBxx_HAL_Driver/Src/stm32wbxx_ll_usb.c ****       }
 2077              		.loc 1 695 9 view .LVU734
 2078 0040 0A78     		ldrb	r2, [r1]	@ zero_extendqisi2
 2079 0042 30F82230 		ldrh	r3, [r0, r2, lsl #2]
 2080 0046 9BB2     		uxth	r3, r3
 2081 0048 23F4E043 		bic	r3, r3, #28672
 2082 004c 23F04003 		bic	r3, r3, #64
 2083              	.LVL243:
ARM GAS  C:\Users\Nathan\AppData\Local\Temp\ccuhR5Xd.s 			page 54


 695:Drivers/STM32WBxx_HAL_Driver/Src/stm32wbxx_ll_usb.c ****       }
 2084              		.loc 1 695 9 view .LVU735
 695:Drivers/STM32WBxx_HAL_Driver/Src/stm32wbxx_ll_usb.c ****       }
 2085              		.loc 1 695 9 discriminator 3 view .LVU736
 695:Drivers/STM32WBxx_HAL_Driver/Src/stm32wbxx_ll_usb.c ****       }
 2086              		.loc 1 695 9 discriminator 4 view .LVU737
 2087 0050 83F02003 		eor	r3, r3, #32
 2088              	.LVL244:
 695:Drivers/STM32WBxx_HAL_Driver/Src/stm32wbxx_ll_usb.c ****       }
 2089              		.loc 1 695 9 discriminator 6 view .LVU738
 2090 0054 43F40043 		orr	r3, r3, #32768
 2091              	.LVL245:
 695:Drivers/STM32WBxx_HAL_Driver/Src/stm32wbxx_ll_usb.c ****       }
 2092              		.loc 1 695 9 is_stmt 0 discriminator 6 view .LVU739
 2093 0058 43F08003 		orr	r3, r3, #128
 2094 005c 20F82230 		strh	r3, [r0, r2, lsl #2]	@ movhi
 2095              	.LBE75:
 695:Drivers/STM32WBxx_HAL_Driver/Src/stm32wbxx_ll_usb.c ****       }
 2096              		.loc 1 695 9 is_stmt 1 view .LVU740
 2097 0060 E6E7     		b	.L77
 2098              	.LVL246:
 2099              	.L78:
 700:Drivers/STM32WBxx_HAL_Driver/Src/stm32wbxx_ll_usb.c ****       }
 2100              		.loc 1 700 9 view .LVU741
 2101              	.LBB76:
 700:Drivers/STM32WBxx_HAL_Driver/Src/stm32wbxx_ll_usb.c ****       }
 2102              		.loc 1 700 9 view .LVU742
 700:Drivers/STM32WBxx_HAL_Driver/Src/stm32wbxx_ll_usb.c ****       }
 2103              		.loc 1 700 9 view .LVU743
 2104 0062 0A78     		ldrb	r2, [r1]	@ zero_extendqisi2
 2105 0064 30F82230 		ldrh	r3, [r0, r2, lsl #2]
 2106 0068 9BB2     		uxth	r3, r3
 2107 006a 23F4E043 		bic	r3, r3, #28672
 2108 006e 23F04003 		bic	r3, r3, #64
 2109              	.LVL247:
 700:Drivers/STM32WBxx_HAL_Driver/Src/stm32wbxx_ll_usb.c ****       }
 2110              		.loc 1 700 9 view .LVU744
 700:Drivers/STM32WBxx_HAL_Driver/Src/stm32wbxx_ll_usb.c ****       }
 2111              		.loc 1 700 9 discriminator 3 view .LVU745
 700:Drivers/STM32WBxx_HAL_Driver/Src/stm32wbxx_ll_usb.c ****       }
 2112              		.loc 1 700 9 discriminator 6 view .LVU746
 2113 0072 43F40043 		orr	r3, r3, #32768
 2114              	.LVL248:
 700:Drivers/STM32WBxx_HAL_Driver/Src/stm32wbxx_ll_usb.c ****       }
 2115              		.loc 1 700 9 is_stmt 0 discriminator 6 view .LVU747
 2116 0076 43F08003 		orr	r3, r3, #128
 2117 007a 20F82230 		strh	r3, [r0, r2, lsl #2]	@ movhi
 2118 007e D7E7     		b	.L77
 2119              	.LVL249:
 2120              	.L79:
 700:Drivers/STM32WBxx_HAL_Driver/Src/stm32wbxx_ll_usb.c ****       }
 2121              		.loc 1 700 9 discriminator 6 view .LVU748
 2122              	.LBE76:
 716:Drivers/STM32WBxx_HAL_Driver/Src/stm32wbxx_ll_usb.c ****       }
 2123              		.loc 1 716 9 is_stmt 1 view .LVU749
 2124              	.LBB77:
 716:Drivers/STM32WBxx_HAL_Driver/Src/stm32wbxx_ll_usb.c ****       }
ARM GAS  C:\Users\Nathan\AppData\Local\Temp\ccuhR5Xd.s 			page 55


 2125              		.loc 1 716 9 view .LVU750
 716:Drivers/STM32WBxx_HAL_Driver/Src/stm32wbxx_ll_usb.c ****       }
 2126              		.loc 1 716 9 view .LVU751
 2127 0080 0A78     		ldrb	r2, [r1]	@ zero_extendqisi2
 2128 0082 30F82230 		ldrh	r3, [r0, r2, lsl #2]
 2129 0086 9BB2     		uxth	r3, r3
 2130 0088 23F48043 		bic	r3, r3, #16384
 2131 008c 23F07003 		bic	r3, r3, #112
 2132              	.LVL250:
 716:Drivers/STM32WBxx_HAL_Driver/Src/stm32wbxx_ll_usb.c ****       }
 2133              		.loc 1 716 9 view .LVU752
 716:Drivers/STM32WBxx_HAL_Driver/Src/stm32wbxx_ll_usb.c ****       }
 2134              		.loc 1 716 9 discriminator 3 view .LVU753
 716:Drivers/STM32WBxx_HAL_Driver/Src/stm32wbxx_ll_usb.c ****       }
 2135              		.loc 1 716 9 discriminator 6 view .LVU754
 2136 0090 43F40043 		orr	r3, r3, #32768
 2137              	.LVL251:
 716:Drivers/STM32WBxx_HAL_Driver/Src/stm32wbxx_ll_usb.c ****       }
 2138              		.loc 1 716 9 is_stmt 0 discriminator 6 view .LVU755
 2139 0094 43F08003 		orr	r3, r3, #128
 2140 0098 20F82230 		strh	r3, [r0, r2, lsl #2]	@ movhi
 2141 009c C8E7     		b	.L77
 2142              	.LBE77:
 2143              		.cfi_endproc
 2144              	.LFE962:
 2146              		.section	.text.USB_StopDevice,"ax",%progbits
 2147              		.align	1
 2148              		.global	USB_StopDevice
 2149              		.syntax unified
 2150              		.thumb
 2151              		.thumb_func
 2153              	USB_StopDevice:
 2154              	.LVL252:
 2155              	.LFB963:
 723:Drivers/STM32WBxx_HAL_Driver/Src/stm32wbxx_ll_usb.c **** #endif /* defined (HAL_PCD_MODULE_ENABLED) */
 724:Drivers/STM32WBxx_HAL_Driver/Src/stm32wbxx_ll_usb.c **** 
 725:Drivers/STM32WBxx_HAL_Driver/Src/stm32wbxx_ll_usb.c **** /**
 726:Drivers/STM32WBxx_HAL_Driver/Src/stm32wbxx_ll_usb.c ****   * @brief  USB_StopDevice Stop the usb device mode
 727:Drivers/STM32WBxx_HAL_Driver/Src/stm32wbxx_ll_usb.c ****   * @param  USBx Selected device
 728:Drivers/STM32WBxx_HAL_Driver/Src/stm32wbxx_ll_usb.c ****   * @retval HAL status
 729:Drivers/STM32WBxx_HAL_Driver/Src/stm32wbxx_ll_usb.c ****   */
 730:Drivers/STM32WBxx_HAL_Driver/Src/stm32wbxx_ll_usb.c **** HAL_StatusTypeDef USB_StopDevice(USB_TypeDef *USBx)
 731:Drivers/STM32WBxx_HAL_Driver/Src/stm32wbxx_ll_usb.c **** {
 2156              		.loc 1 731 1 is_stmt 1 view -0
 2157              		.cfi_startproc
 2158              		@ args = 0, pretend = 0, frame = 0
 2159              		@ frame_needed = 0, uses_anonymous_args = 0
 2160              		@ link register save eliminated.
 2161              		.loc 1 731 1 is_stmt 0 view .LVU757
 2162 0000 0346     		mov	r3, r0
 732:Drivers/STM32WBxx_HAL_Driver/Src/stm32wbxx_ll_usb.c ****   /* disable all interrupts and force USB reset */
 733:Drivers/STM32WBxx_HAL_Driver/Src/stm32wbxx_ll_usb.c ****   USBx->CNTR = (uint16_t)USB_CNTR_FRES;
 2163              		.loc 1 733 3 is_stmt 1 view .LVU758
 2164              		.loc 1 733 14 is_stmt 0 view .LVU759
 2165 0002 0122     		movs	r2, #1
 2166 0004 A0F84020 		strh	r2, [r0, #64]	@ movhi
 734:Drivers/STM32WBxx_HAL_Driver/Src/stm32wbxx_ll_usb.c **** 
ARM GAS  C:\Users\Nathan\AppData\Local\Temp\ccuhR5Xd.s 			page 56


 735:Drivers/STM32WBxx_HAL_Driver/Src/stm32wbxx_ll_usb.c ****   /* clear interrupt status register */
 736:Drivers/STM32WBxx_HAL_Driver/Src/stm32wbxx_ll_usb.c ****   USBx->ISTR = 0U;
 2167              		.loc 1 736 3 is_stmt 1 view .LVU760
 2168              		.loc 1 736 14 is_stmt 0 view .LVU761
 2169 0008 0020     		movs	r0, #0
 2170              	.LVL253:
 2171              		.loc 1 736 14 view .LVU762
 2172 000a A3F84400 		strh	r0, [r3, #68]	@ movhi
 737:Drivers/STM32WBxx_HAL_Driver/Src/stm32wbxx_ll_usb.c **** 
 738:Drivers/STM32WBxx_HAL_Driver/Src/stm32wbxx_ll_usb.c ****   /* switch-off device */
 739:Drivers/STM32WBxx_HAL_Driver/Src/stm32wbxx_ll_usb.c ****   USBx->CNTR = (uint16_t)(USB_CNTR_FRES | USB_CNTR_PDWN);
 2173              		.loc 1 739 3 is_stmt 1 view .LVU763
 2174              		.loc 1 739 14 is_stmt 0 view .LVU764
 2175 000e 0322     		movs	r2, #3
 2176 0010 A3F84020 		strh	r2, [r3, #64]	@ movhi
 740:Drivers/STM32WBxx_HAL_Driver/Src/stm32wbxx_ll_usb.c **** 
 741:Drivers/STM32WBxx_HAL_Driver/Src/stm32wbxx_ll_usb.c ****   return HAL_OK;
 2177              		.loc 1 741 3 is_stmt 1 view .LVU765
 742:Drivers/STM32WBxx_HAL_Driver/Src/stm32wbxx_ll_usb.c **** }
 2178              		.loc 1 742 1 is_stmt 0 view .LVU766
 2179 0014 7047     		bx	lr
 2180              		.cfi_endproc
 2181              	.LFE963:
 2183              		.section	.text.USB_SetDevAddress,"ax",%progbits
 2184              		.align	1
 2185              		.global	USB_SetDevAddress
 2186              		.syntax unified
 2187              		.thumb
 2188              		.thumb_func
 2190              	USB_SetDevAddress:
 2191              	.LVL254:
 2192              	.LFB964:
 743:Drivers/STM32WBxx_HAL_Driver/Src/stm32wbxx_ll_usb.c **** 
 744:Drivers/STM32WBxx_HAL_Driver/Src/stm32wbxx_ll_usb.c **** /**
 745:Drivers/STM32WBxx_HAL_Driver/Src/stm32wbxx_ll_usb.c ****   * @brief  USB_SetDevAddress Stop the usb device mode
 746:Drivers/STM32WBxx_HAL_Driver/Src/stm32wbxx_ll_usb.c ****   * @param  USBx Selected device
 747:Drivers/STM32WBxx_HAL_Driver/Src/stm32wbxx_ll_usb.c ****   * @param  address new device address to be assigned
 748:Drivers/STM32WBxx_HAL_Driver/Src/stm32wbxx_ll_usb.c ****   *          This parameter can be a value from 0 to 255
 749:Drivers/STM32WBxx_HAL_Driver/Src/stm32wbxx_ll_usb.c ****   * @retval HAL status
 750:Drivers/STM32WBxx_HAL_Driver/Src/stm32wbxx_ll_usb.c ****   */
 751:Drivers/STM32WBxx_HAL_Driver/Src/stm32wbxx_ll_usb.c **** HAL_StatusTypeDef  USB_SetDevAddress(USB_TypeDef *USBx, uint8_t address)
 752:Drivers/STM32WBxx_HAL_Driver/Src/stm32wbxx_ll_usb.c **** {
 2193              		.loc 1 752 1 is_stmt 1 view -0
 2194              		.cfi_startproc
 2195              		@ args = 0, pretend = 0, frame = 0
 2196              		@ frame_needed = 0, uses_anonymous_args = 0
 2197              		@ link register save eliminated.
 753:Drivers/STM32WBxx_HAL_Driver/Src/stm32wbxx_ll_usb.c ****   if (address == 0U)
 2198              		.loc 1 753 3 view .LVU768
 2199              		.loc 1 753 6 is_stmt 0 view .LVU769
 2200 0000 11B9     		cbnz	r1, .L83
 754:Drivers/STM32WBxx_HAL_Driver/Src/stm32wbxx_ll_usb.c ****   {
 755:Drivers/STM32WBxx_HAL_Driver/Src/stm32wbxx_ll_usb.c ****     /* set device address and enable function */
 756:Drivers/STM32WBxx_HAL_Driver/Src/stm32wbxx_ll_usb.c ****     USBx->DADDR = (uint16_t)USB_DADDR_EF;
 2201              		.loc 1 756 5 is_stmt 1 view .LVU770
 2202              		.loc 1 756 17 is_stmt 0 view .LVU771
 2203 0002 8023     		movs	r3, #128
ARM GAS  C:\Users\Nathan\AppData\Local\Temp\ccuhR5Xd.s 			page 57


 2204 0004 A0F84C30 		strh	r3, [r0, #76]	@ movhi
 2205              	.L83:
 757:Drivers/STM32WBxx_HAL_Driver/Src/stm32wbxx_ll_usb.c ****   }
 758:Drivers/STM32WBxx_HAL_Driver/Src/stm32wbxx_ll_usb.c **** 
 759:Drivers/STM32WBxx_HAL_Driver/Src/stm32wbxx_ll_usb.c ****   return HAL_OK;
 2206              		.loc 1 759 3 is_stmt 1 view .LVU772
 760:Drivers/STM32WBxx_HAL_Driver/Src/stm32wbxx_ll_usb.c **** }
 2207              		.loc 1 760 1 is_stmt 0 view .LVU773
 2208 0008 0020     		movs	r0, #0
 2209              	.LVL255:
 2210              		.loc 1 760 1 view .LVU774
 2211 000a 7047     		bx	lr
 2212              		.cfi_endproc
 2213              	.LFE964:
 2215              		.section	.text.USB_DevConnect,"ax",%progbits
 2216              		.align	1
 2217              		.global	USB_DevConnect
 2218              		.syntax unified
 2219              		.thumb
 2220              		.thumb_func
 2222              	USB_DevConnect:
 2223              	.LVL256:
 2224              	.LFB965:
 761:Drivers/STM32WBxx_HAL_Driver/Src/stm32wbxx_ll_usb.c **** 
 762:Drivers/STM32WBxx_HAL_Driver/Src/stm32wbxx_ll_usb.c **** /**
 763:Drivers/STM32WBxx_HAL_Driver/Src/stm32wbxx_ll_usb.c ****   * @brief  USB_DevConnect Connect the USB device by enabling the pull-up/pull-down
 764:Drivers/STM32WBxx_HAL_Driver/Src/stm32wbxx_ll_usb.c ****   * @param  USBx Selected device
 765:Drivers/STM32WBxx_HAL_Driver/Src/stm32wbxx_ll_usb.c ****   * @retval HAL status
 766:Drivers/STM32WBxx_HAL_Driver/Src/stm32wbxx_ll_usb.c ****   */
 767:Drivers/STM32WBxx_HAL_Driver/Src/stm32wbxx_ll_usb.c **** HAL_StatusTypeDef  USB_DevConnect(USB_TypeDef *USBx)
 768:Drivers/STM32WBxx_HAL_Driver/Src/stm32wbxx_ll_usb.c **** {
 2225              		.loc 1 768 1 is_stmt 1 view -0
 2226              		.cfi_startproc
 2227              		@ args = 0, pretend = 0, frame = 0
 2228              		@ frame_needed = 0, uses_anonymous_args = 0
 2229              		@ link register save eliminated.
 769:Drivers/STM32WBxx_HAL_Driver/Src/stm32wbxx_ll_usb.c ****   /* Enabling DP Pull-UP bit to Connect internal PU resistor on USB DP line */
 770:Drivers/STM32WBxx_HAL_Driver/Src/stm32wbxx_ll_usb.c ****   USBx->BCDR |= (uint16_t)USB_BCDR_DPPU;
 2230              		.loc 1 770 3 view .LVU776
 2231              		.loc 1 770 7 is_stmt 0 view .LVU777
 2232 0000 B0F85830 		ldrh	r3, [r0, #88]
 2233              		.loc 1 770 14 view .LVU778
 2234 0004 6FEA4343 		mvn	r3, r3, lsl #17
 2235 0008 6FEA5343 		mvn	r3, r3, lsr #17
 2236 000c 9BB2     		uxth	r3, r3
 2237 000e A0F85830 		strh	r3, [r0, #88]	@ movhi
 771:Drivers/STM32WBxx_HAL_Driver/Src/stm32wbxx_ll_usb.c **** 
 772:Drivers/STM32WBxx_HAL_Driver/Src/stm32wbxx_ll_usb.c ****   return HAL_OK;
 2238              		.loc 1 772 3 is_stmt 1 view .LVU779
 773:Drivers/STM32WBxx_HAL_Driver/Src/stm32wbxx_ll_usb.c **** }
 2239              		.loc 1 773 1 is_stmt 0 view .LVU780
 2240 0012 0020     		movs	r0, #0
 2241              	.LVL257:
 2242              		.loc 1 773 1 view .LVU781
 2243 0014 7047     		bx	lr
 2244              		.cfi_endproc
 2245              	.LFE965:
ARM GAS  C:\Users\Nathan\AppData\Local\Temp\ccuhR5Xd.s 			page 58


 2247              		.section	.text.USB_DevDisconnect,"ax",%progbits
 2248              		.align	1
 2249              		.global	USB_DevDisconnect
 2250              		.syntax unified
 2251              		.thumb
 2252              		.thumb_func
 2254              	USB_DevDisconnect:
 2255              	.LVL258:
 2256              	.LFB966:
 774:Drivers/STM32WBxx_HAL_Driver/Src/stm32wbxx_ll_usb.c **** 
 775:Drivers/STM32WBxx_HAL_Driver/Src/stm32wbxx_ll_usb.c **** /**
 776:Drivers/STM32WBxx_HAL_Driver/Src/stm32wbxx_ll_usb.c ****   * @brief  USB_DevDisconnect Disconnect the USB device by disabling the pull-up/pull-down
 777:Drivers/STM32WBxx_HAL_Driver/Src/stm32wbxx_ll_usb.c ****   * @param  USBx Selected device
 778:Drivers/STM32WBxx_HAL_Driver/Src/stm32wbxx_ll_usb.c ****   * @retval HAL status
 779:Drivers/STM32WBxx_HAL_Driver/Src/stm32wbxx_ll_usb.c ****   */
 780:Drivers/STM32WBxx_HAL_Driver/Src/stm32wbxx_ll_usb.c **** HAL_StatusTypeDef  USB_DevDisconnect(USB_TypeDef *USBx)
 781:Drivers/STM32WBxx_HAL_Driver/Src/stm32wbxx_ll_usb.c **** {
 2257              		.loc 1 781 1 is_stmt 1 view -0
 2258              		.cfi_startproc
 2259              		@ args = 0, pretend = 0, frame = 0
 2260              		@ frame_needed = 0, uses_anonymous_args = 0
 2261              		@ link register save eliminated.
 782:Drivers/STM32WBxx_HAL_Driver/Src/stm32wbxx_ll_usb.c ****   /* Disable DP Pull-Up bit to disconnect the Internal PU resistor on USB DP line */
 783:Drivers/STM32WBxx_HAL_Driver/Src/stm32wbxx_ll_usb.c ****   USBx->BCDR &= (uint16_t)(~(USB_BCDR_DPPU));
 2262              		.loc 1 783 3 view .LVU783
 2263              		.loc 1 783 7 is_stmt 0 view .LVU784
 2264 0000 B0F85830 		ldrh	r3, [r0, #88]
 2265              		.loc 1 783 14 view .LVU785
 2266 0004 C3F30E03 		ubfx	r3, r3, #0, #15
 2267 0008 A0F85830 		strh	r3, [r0, #88]	@ movhi
 784:Drivers/STM32WBxx_HAL_Driver/Src/stm32wbxx_ll_usb.c **** 
 785:Drivers/STM32WBxx_HAL_Driver/Src/stm32wbxx_ll_usb.c ****   return HAL_OK;
 2268              		.loc 1 785 3 is_stmt 1 view .LVU786
 786:Drivers/STM32WBxx_HAL_Driver/Src/stm32wbxx_ll_usb.c **** }
 2269              		.loc 1 786 1 is_stmt 0 view .LVU787
 2270 000c 0020     		movs	r0, #0
 2271              	.LVL259:
 2272              		.loc 1 786 1 view .LVU788
 2273 000e 7047     		bx	lr
 2274              		.cfi_endproc
 2275              	.LFE966:
 2277              		.section	.text.USB_ReadInterrupts,"ax",%progbits
 2278              		.align	1
 2279              		.global	USB_ReadInterrupts
 2280              		.syntax unified
 2281              		.thumb
 2282              		.thumb_func
 2284              	USB_ReadInterrupts:
 2285              	.LVL260:
 2286              	.LFB967:
 787:Drivers/STM32WBxx_HAL_Driver/Src/stm32wbxx_ll_usb.c **** 
 788:Drivers/STM32WBxx_HAL_Driver/Src/stm32wbxx_ll_usb.c **** /**
 789:Drivers/STM32WBxx_HAL_Driver/Src/stm32wbxx_ll_usb.c ****   * @brief  USB_ReadInterrupts return the global USB interrupt status
 790:Drivers/STM32WBxx_HAL_Driver/Src/stm32wbxx_ll_usb.c ****   * @param  USBx Selected device
 791:Drivers/STM32WBxx_HAL_Driver/Src/stm32wbxx_ll_usb.c ****   * @retval USB Global Interrupt status
 792:Drivers/STM32WBxx_HAL_Driver/Src/stm32wbxx_ll_usb.c ****   */
 793:Drivers/STM32WBxx_HAL_Driver/Src/stm32wbxx_ll_usb.c **** uint32_t USB_ReadInterrupts(USB_TypeDef const *USBx)
ARM GAS  C:\Users\Nathan\AppData\Local\Temp\ccuhR5Xd.s 			page 59


 794:Drivers/STM32WBxx_HAL_Driver/Src/stm32wbxx_ll_usb.c **** {
 2287              		.loc 1 794 1 is_stmt 1 view -0
 2288              		.cfi_startproc
 2289              		@ args = 0, pretend = 0, frame = 0
 2290              		@ frame_needed = 0, uses_anonymous_args = 0
 2291              		@ link register save eliminated.
 795:Drivers/STM32WBxx_HAL_Driver/Src/stm32wbxx_ll_usb.c ****   uint32_t tmpreg;
 2292              		.loc 1 795 3 view .LVU790
 796:Drivers/STM32WBxx_HAL_Driver/Src/stm32wbxx_ll_usb.c **** 
 797:Drivers/STM32WBxx_HAL_Driver/Src/stm32wbxx_ll_usb.c ****   tmpreg = USBx->ISTR;
 2293              		.loc 1 797 3 view .LVU791
 2294              		.loc 1 797 16 is_stmt 0 view .LVU792
 2295 0000 B0F84400 		ldrh	r0, [r0, #68]
 2296              	.LVL261:
 798:Drivers/STM32WBxx_HAL_Driver/Src/stm32wbxx_ll_usb.c ****   return tmpreg;
 2297              		.loc 1 798 3 is_stmt 1 view .LVU793
 799:Drivers/STM32WBxx_HAL_Driver/Src/stm32wbxx_ll_usb.c **** }
 2298              		.loc 1 799 1 is_stmt 0 view .LVU794
 2299 0004 80B2     		uxth	r0, r0
 2300              	.LVL262:
 2301              		.loc 1 799 1 view .LVU795
 2302 0006 7047     		bx	lr
 2303              		.cfi_endproc
 2304              	.LFE967:
 2306              		.section	.text.USB_ActivateRemoteWakeup,"ax",%progbits
 2307              		.align	1
 2308              		.global	USB_ActivateRemoteWakeup
 2309              		.syntax unified
 2310              		.thumb
 2311              		.thumb_func
 2313              	USB_ActivateRemoteWakeup:
 2314              	.LVL263:
 2315              	.LFB968:
 800:Drivers/STM32WBxx_HAL_Driver/Src/stm32wbxx_ll_usb.c **** 
 801:Drivers/STM32WBxx_HAL_Driver/Src/stm32wbxx_ll_usb.c **** /**
 802:Drivers/STM32WBxx_HAL_Driver/Src/stm32wbxx_ll_usb.c ****   * @brief  USB_ActivateRemoteWakeup : active remote wakeup signalling
 803:Drivers/STM32WBxx_HAL_Driver/Src/stm32wbxx_ll_usb.c ****   * @param  USBx Selected device
 804:Drivers/STM32WBxx_HAL_Driver/Src/stm32wbxx_ll_usb.c ****   * @retval HAL status
 805:Drivers/STM32WBxx_HAL_Driver/Src/stm32wbxx_ll_usb.c ****   */
 806:Drivers/STM32WBxx_HAL_Driver/Src/stm32wbxx_ll_usb.c **** HAL_StatusTypeDef USB_ActivateRemoteWakeup(USB_TypeDef *USBx)
 807:Drivers/STM32WBxx_HAL_Driver/Src/stm32wbxx_ll_usb.c **** {
 2316              		.loc 1 807 1 is_stmt 1 view -0
 2317              		.cfi_startproc
 2318              		@ args = 0, pretend = 0, frame = 0
 2319              		@ frame_needed = 0, uses_anonymous_args = 0
 2320              		@ link register save eliminated.
 808:Drivers/STM32WBxx_HAL_Driver/Src/stm32wbxx_ll_usb.c ****   USBx->CNTR |= (uint16_t)USB_CNTR_RESUME;
 2321              		.loc 1 808 3 view .LVU797
 2322              		.loc 1 808 7 is_stmt 0 view .LVU798
 2323 0000 B0F84030 		ldrh	r3, [r0, #64]
 2324 0004 9BB2     		uxth	r3, r3
 2325              		.loc 1 808 14 view .LVU799
 2326 0006 43F01003 		orr	r3, r3, #16
 2327 000a A0F84030 		strh	r3, [r0, #64]	@ movhi
 809:Drivers/STM32WBxx_HAL_Driver/Src/stm32wbxx_ll_usb.c **** 
 810:Drivers/STM32WBxx_HAL_Driver/Src/stm32wbxx_ll_usb.c ****   return HAL_OK;
 2328              		.loc 1 810 3 is_stmt 1 view .LVU800
ARM GAS  C:\Users\Nathan\AppData\Local\Temp\ccuhR5Xd.s 			page 60


 811:Drivers/STM32WBxx_HAL_Driver/Src/stm32wbxx_ll_usb.c **** }
 2329              		.loc 1 811 1 is_stmt 0 view .LVU801
 2330 000e 0020     		movs	r0, #0
 2331              	.LVL264:
 2332              		.loc 1 811 1 view .LVU802
 2333 0010 7047     		bx	lr
 2334              		.cfi_endproc
 2335              	.LFE968:
 2337              		.section	.text.USB_DeActivateRemoteWakeup,"ax",%progbits
 2338              		.align	1
 2339              		.global	USB_DeActivateRemoteWakeup
 2340              		.syntax unified
 2341              		.thumb
 2342              		.thumb_func
 2344              	USB_DeActivateRemoteWakeup:
 2345              	.LVL265:
 2346              	.LFB969:
 812:Drivers/STM32WBxx_HAL_Driver/Src/stm32wbxx_ll_usb.c **** 
 813:Drivers/STM32WBxx_HAL_Driver/Src/stm32wbxx_ll_usb.c **** /**
 814:Drivers/STM32WBxx_HAL_Driver/Src/stm32wbxx_ll_usb.c ****   * @brief  USB_DeActivateRemoteWakeup de-active remote wakeup signalling
 815:Drivers/STM32WBxx_HAL_Driver/Src/stm32wbxx_ll_usb.c ****   * @param  USBx Selected device
 816:Drivers/STM32WBxx_HAL_Driver/Src/stm32wbxx_ll_usb.c ****   * @retval HAL status
 817:Drivers/STM32WBxx_HAL_Driver/Src/stm32wbxx_ll_usb.c ****   */
 818:Drivers/STM32WBxx_HAL_Driver/Src/stm32wbxx_ll_usb.c **** HAL_StatusTypeDef USB_DeActivateRemoteWakeup(USB_TypeDef *USBx)
 819:Drivers/STM32WBxx_HAL_Driver/Src/stm32wbxx_ll_usb.c **** {
 2347              		.loc 1 819 1 is_stmt 1 view -0
 2348              		.cfi_startproc
 2349              		@ args = 0, pretend = 0, frame = 0
 2350              		@ frame_needed = 0, uses_anonymous_args = 0
 2351              		@ link register save eliminated.
 820:Drivers/STM32WBxx_HAL_Driver/Src/stm32wbxx_ll_usb.c ****   USBx->CNTR &= (uint16_t)(~USB_CNTR_RESUME);
 2352              		.loc 1 820 3 view .LVU804
 2353              		.loc 1 820 7 is_stmt 0 view .LVU805
 2354 0000 B0F84030 		ldrh	r3, [r0, #64]
 2355 0004 9BB2     		uxth	r3, r3
 2356              		.loc 1 820 14 view .LVU806
 2357 0006 23F01003 		bic	r3, r3, #16
 2358 000a 9BB2     		uxth	r3, r3
 2359 000c A0F84030 		strh	r3, [r0, #64]	@ movhi
 821:Drivers/STM32WBxx_HAL_Driver/Src/stm32wbxx_ll_usb.c **** 
 822:Drivers/STM32WBxx_HAL_Driver/Src/stm32wbxx_ll_usb.c ****   return HAL_OK;
 2360              		.loc 1 822 3 is_stmt 1 view .LVU807
 823:Drivers/STM32WBxx_HAL_Driver/Src/stm32wbxx_ll_usb.c **** }
 2361              		.loc 1 823 1 is_stmt 0 view .LVU808
 2362 0010 0020     		movs	r0, #0
 2363              	.LVL266:
 2364              		.loc 1 823 1 view .LVU809
 2365 0012 7047     		bx	lr
 2366              		.cfi_endproc
 2367              	.LFE969:
 2369              		.section	.text.USB_WritePMA,"ax",%progbits
 2370              		.align	1
 2371              		.global	USB_WritePMA
 2372              		.syntax unified
 2373              		.thumb
 2374              		.thumb_func
 2376              	USB_WritePMA:
ARM GAS  C:\Users\Nathan\AppData\Local\Temp\ccuhR5Xd.s 			page 61


 2377              	.LVL267:
 2378              	.LFB970:
 824:Drivers/STM32WBxx_HAL_Driver/Src/stm32wbxx_ll_usb.c **** 
 825:Drivers/STM32WBxx_HAL_Driver/Src/stm32wbxx_ll_usb.c **** /**
 826:Drivers/STM32WBxx_HAL_Driver/Src/stm32wbxx_ll_usb.c ****   * @brief Copy a buffer from user memory area to packet memory area (PMA)
 827:Drivers/STM32WBxx_HAL_Driver/Src/stm32wbxx_ll_usb.c ****   * @param   USBx USB peripheral instance register address.
 828:Drivers/STM32WBxx_HAL_Driver/Src/stm32wbxx_ll_usb.c ****   * @param   pbUsrBuf pointer to user memory area.
 829:Drivers/STM32WBxx_HAL_Driver/Src/stm32wbxx_ll_usb.c ****   * @param   wPMABufAddr address into PMA.
 830:Drivers/STM32WBxx_HAL_Driver/Src/stm32wbxx_ll_usb.c ****   * @param   wNBytes no. of bytes to be copied.
 831:Drivers/STM32WBxx_HAL_Driver/Src/stm32wbxx_ll_usb.c ****   * @retval None
 832:Drivers/STM32WBxx_HAL_Driver/Src/stm32wbxx_ll_usb.c ****   */
 833:Drivers/STM32WBxx_HAL_Driver/Src/stm32wbxx_ll_usb.c **** void USB_WritePMA(USB_TypeDef const *USBx, uint8_t *pbUsrBuf, uint16_t wPMABufAddr, uint16_t wNByte
 834:Drivers/STM32WBxx_HAL_Driver/Src/stm32wbxx_ll_usb.c **** {
 2379              		.loc 1 834 1 is_stmt 1 view -0
 2380              		.cfi_startproc
 2381              		@ args = 0, pretend = 0, frame = 0
 2382              		@ frame_needed = 0, uses_anonymous_args = 0
 2383              		@ link register save eliminated.
 835:Drivers/STM32WBxx_HAL_Driver/Src/stm32wbxx_ll_usb.c ****   uint32_t n = ((uint32_t)wNBytes + 1U) >> 1;
 2384              		.loc 1 835 3 view .LVU811
 2385              		.loc 1 835 35 is_stmt 0 view .LVU812
 2386 0000 0133     		adds	r3, r3, #1
 2387              	.LVL268:
 2388              		.loc 1 835 12 view .LVU813
 2389 0002 5B08     		lsrs	r3, r3, #1
 2390              	.LVL269:
 836:Drivers/STM32WBxx_HAL_Driver/Src/stm32wbxx_ll_usb.c ****   uint32_t BaseAddr = (uint32_t)USBx;
 2391              		.loc 1 836 3 is_stmt 1 view .LVU814
 837:Drivers/STM32WBxx_HAL_Driver/Src/stm32wbxx_ll_usb.c ****   uint32_t count;
 2392              		.loc 1 837 3 view .LVU815
 838:Drivers/STM32WBxx_HAL_Driver/Src/stm32wbxx_ll_usb.c ****   uint16_t WrVal;
 2393              		.loc 1 838 3 view .LVU816
 839:Drivers/STM32WBxx_HAL_Driver/Src/stm32wbxx_ll_usb.c ****   __IO uint16_t *pdwVal;
 2394              		.loc 1 839 3 view .LVU817
 840:Drivers/STM32WBxx_HAL_Driver/Src/stm32wbxx_ll_usb.c ****   uint8_t *pBuf = pbUsrBuf;
 2395              		.loc 1 840 3 view .LVU818
 841:Drivers/STM32WBxx_HAL_Driver/Src/stm32wbxx_ll_usb.c **** 
 842:Drivers/STM32WBxx_HAL_Driver/Src/stm32wbxx_ll_usb.c ****   pdwVal = (__IO uint16_t *)(BaseAddr + 0x400U + ((uint32_t)wPMABufAddr * PMA_ACCESS));
 2396              		.loc 1 842 3 view .LVU819
 2397              		.loc 1 842 48 is_stmt 0 view .LVU820
 2398 0004 1044     		add	r0, r0, r2
 2399              	.LVL270:
 2400              		.loc 1 842 48 view .LVU821
 2401 0006 00F58060 		add	r0, r0, #1024
 2402              	.LVL271:
 843:Drivers/STM32WBxx_HAL_Driver/Src/stm32wbxx_ll_usb.c **** 
 844:Drivers/STM32WBxx_HAL_Driver/Src/stm32wbxx_ll_usb.c ****   for (count = n; count != 0U; count--)
 2403              		.loc 1 844 3 is_stmt 1 view .LVU822
 2404              		.loc 1 844 3 is_stmt 0 view .LVU823
 2405 000a 08E0     		b	.L90
 2406              	.LVL272:
 2407              	.L91:
 845:Drivers/STM32WBxx_HAL_Driver/Src/stm32wbxx_ll_usb.c ****   {
 846:Drivers/STM32WBxx_HAL_Driver/Src/stm32wbxx_ll_usb.c ****     WrVal = pBuf[0];
 2408              		.loc 1 846 5 is_stmt 1 view .LVU824
 2409              		.loc 1 846 17 is_stmt 0 view .LVU825
 2410 000c 0A78     		ldrb	r2, [r1]	@ zero_extendqisi2
ARM GAS  C:\Users\Nathan\AppData\Local\Temp\ccuhR5Xd.s 			page 62


 2411              	.LVL273:
 847:Drivers/STM32WBxx_HAL_Driver/Src/stm32wbxx_ll_usb.c ****     WrVal |= (uint16_t)pBuf[1] << 8;
 2412              		.loc 1 847 5 is_stmt 1 view .LVU826
 2413              		.loc 1 847 28 is_stmt 0 view .LVU827
 2414 000e 91F801C0 		ldrb	ip, [r1, #1]	@ zero_extendqisi2
 2415              		.loc 1 847 11 view .LVU828
 2416 0012 42EA0C22 		orr	r2, r2, ip, lsl #8
 2417              	.LVL274:
 848:Drivers/STM32WBxx_HAL_Driver/Src/stm32wbxx_ll_usb.c ****     *pdwVal = (WrVal & 0xFFFFU);
 2418              		.loc 1 848 5 is_stmt 1 view .LVU829
 2419              		.loc 1 848 13 is_stmt 0 view .LVU830
 2420 0016 20F8022B 		strh	r2, [r0], #2	@ movhi
 2421              	.LVL275:
 849:Drivers/STM32WBxx_HAL_Driver/Src/stm32wbxx_ll_usb.c ****     pdwVal++;
 2422              		.loc 1 849 5 is_stmt 1 view .LVU831
 850:Drivers/STM32WBxx_HAL_Driver/Src/stm32wbxx_ll_usb.c **** 
 851:Drivers/STM32WBxx_HAL_Driver/Src/stm32wbxx_ll_usb.c **** #if PMA_ACCESS > 1U
 852:Drivers/STM32WBxx_HAL_Driver/Src/stm32wbxx_ll_usb.c ****     pdwVal++;
 853:Drivers/STM32WBxx_HAL_Driver/Src/stm32wbxx_ll_usb.c **** #endif /* PMA_ACCESS */
 854:Drivers/STM32WBxx_HAL_Driver/Src/stm32wbxx_ll_usb.c **** 
 855:Drivers/STM32WBxx_HAL_Driver/Src/stm32wbxx_ll_usb.c ****     pBuf++;
 2423              		.loc 1 855 5 view .LVU832
 856:Drivers/STM32WBxx_HAL_Driver/Src/stm32wbxx_ll_usb.c ****     pBuf++;
 2424              		.loc 1 856 5 view .LVU833
 2425              		.loc 1 856 9 is_stmt 0 view .LVU834
 2426 001a 0231     		adds	r1, r1, #2
 2427              	.LVL276:
 844:Drivers/STM32WBxx_HAL_Driver/Src/stm32wbxx_ll_usb.c ****   {
 2428              		.loc 1 844 37 is_stmt 1 discriminator 3 view .LVU835
 2429 001c 013B     		subs	r3, r3, #1
 2430              	.LVL277:
 2431              	.L90:
 844:Drivers/STM32WBxx_HAL_Driver/Src/stm32wbxx_ll_usb.c ****   {
 2432              		.loc 1 844 25 discriminator 1 view .LVU836
 2433 001e 002B     		cmp	r3, #0
 2434 0020 F4D1     		bne	.L91
 857:Drivers/STM32WBxx_HAL_Driver/Src/stm32wbxx_ll_usb.c ****   }
 858:Drivers/STM32WBxx_HAL_Driver/Src/stm32wbxx_ll_usb.c **** }
 2435              		.loc 1 858 1 is_stmt 0 view .LVU837
 2436 0022 7047     		bx	lr
 2437              		.cfi_endproc
 2438              	.LFE970:
 2440              		.section	.text.USB_EPStartXfer,"ax",%progbits
 2441              		.align	1
 2442              		.global	USB_EPStartXfer
 2443              		.syntax unified
 2444              		.thumb
 2445              		.thumb_func
 2447              	USB_EPStartXfer:
 2448              	.LVL278:
 2449              	.LFB959:
 423:Drivers/STM32WBxx_HAL_Driver/Src/stm32wbxx_ll_usb.c ****   uint32_t len;
 2450              		.loc 1 423 1 is_stmt 1 view -0
 2451              		.cfi_startproc
 2452              		@ args = 0, pretend = 0, frame = 0
 2453              		@ frame_needed = 0, uses_anonymous_args = 0
 423:Drivers/STM32WBxx_HAL_Driver/Src/stm32wbxx_ll_usb.c ****   uint32_t len;
ARM GAS  C:\Users\Nathan\AppData\Local\Temp\ccuhR5Xd.s 			page 63


 2454              		.loc 1 423 1 is_stmt 0 view .LVU839
 2455 0000 70B5     		push	{r4, r5, r6, lr}
 2456              		.cfi_def_cfa_offset 16
 2457              		.cfi_offset 4, -16
 2458              		.cfi_offset 5, -12
 2459              		.cfi_offset 6, -8
 2460              		.cfi_offset 14, -4
 2461 0002 0546     		mov	r5, r0
 2462 0004 0C46     		mov	r4, r1
 424:Drivers/STM32WBxx_HAL_Driver/Src/stm32wbxx_ll_usb.c **** #if (USE_USB_DOUBLE_BUFFER == 1U)
 2463              		.loc 1 424 3 is_stmt 1 view .LVU840
 426:Drivers/STM32WBxx_HAL_Driver/Src/stm32wbxx_ll_usb.c ****   uint16_t wEPVal;
 2464              		.loc 1 426 3 view .LVU841
 427:Drivers/STM32WBxx_HAL_Driver/Src/stm32wbxx_ll_usb.c **** #endif /* (USE_USB_DOUBLE_BUFFER == 1U) */
 2465              		.loc 1 427 3 view .LVU842
 431:Drivers/STM32WBxx_HAL_Driver/Src/stm32wbxx_ll_usb.c ****   {
 2466              		.loc 1 431 3 view .LVU843
 431:Drivers/STM32WBxx_HAL_Driver/Src/stm32wbxx_ll_usb.c ****   {
 2467              		.loc 1 431 9 is_stmt 0 view .LVU844
 2468 0006 4B78     		ldrb	r3, [r1, #1]	@ zero_extendqisi2
 431:Drivers/STM32WBxx_HAL_Driver/Src/stm32wbxx_ll_usb.c ****   {
 2469              		.loc 1 431 6 view .LVU845
 2470 0008 012B     		cmp	r3, #1
 2471 000a 1AD0     		beq	.L152
 567:Drivers/STM32WBxx_HAL_Driver/Src/stm32wbxx_ll_usb.c ****     {
 2472              		.loc 1 567 5 is_stmt 1 view .LVU846
 567:Drivers/STM32WBxx_HAL_Driver/Src/stm32wbxx_ll_usb.c ****     {
 2473              		.loc 1 567 11 is_stmt 0 view .LVU847
 2474 000c 0B7B     		ldrb	r3, [r1, #12]	@ zero_extendqisi2
 567:Drivers/STM32WBxx_HAL_Driver/Src/stm32wbxx_ll_usb.c ****     {
 2475              		.loc 1 567 8 view .LVU848
 2476 000e 002B     		cmp	r3, #0
 2477 0010 40F09482 		bne	.L142
 569:Drivers/STM32WBxx_HAL_Driver/Src/stm32wbxx_ll_usb.c ****       {
 2478              		.loc 1 569 7 is_stmt 1 view .LVU849
 569:Drivers/STM32WBxx_HAL_Driver/Src/stm32wbxx_ll_usb.c ****       {
 2479              		.loc 1 569 14 is_stmt 0 view .LVU850
 2480 0014 8B69     		ldr	r3, [r1, #24]
 569:Drivers/STM32WBxx_HAL_Driver/Src/stm32wbxx_ll_usb.c ****       {
 2481              		.loc 1 569 10 view .LVU851
 2482 0016 002B     		cmp	r3, #0
 2483 0018 40F06782 		bne	.L143
 569:Drivers/STM32WBxx_HAL_Driver/Src/stm32wbxx_ll_usb.c ****       {
 2484              		.loc 1 569 38 discriminator 1 view .LVU852
 2485 001c CB78     		ldrb	r3, [r1, #3]	@ zero_extendqisi2
 569:Drivers/STM32WBxx_HAL_Driver/Src/stm32wbxx_ll_usb.c ****       {
 2486              		.loc 1 569 32 discriminator 1 view .LVU853
 2487 001e 002B     		cmp	r3, #0
 2488 0020 40F06382 		bne	.L143
 572:Drivers/STM32WBxx_HAL_Driver/Src/stm32wbxx_ll_usb.c ****       }
 2489              		.loc 1 572 9 is_stmt 1 view .LVU854
 2490              	.LBB78:
 572:Drivers/STM32WBxx_HAL_Driver/Src/stm32wbxx_ll_usb.c ****       }
 2491              		.loc 1 572 9 view .LVU855
 572:Drivers/STM32WBxx_HAL_Driver/Src/stm32wbxx_ll_usb.c ****       }
 2492              		.loc 1 572 9 view .LVU856
 2493 0024 0A78     		ldrb	r2, [r1]	@ zero_extendqisi2
ARM GAS  C:\Users\Nathan\AppData\Local\Temp\ccuhR5Xd.s 			page 64


 2494 0026 30F82230 		ldrh	r3, [r0, r2, lsl #2]
 2495 002a 9BB2     		uxth	r3, r3
 2496 002c 23F4E043 		bic	r3, r3, #28672
 2497 0030 23F07003 		bic	r3, r3, #112
 2498              	.LVL279:
 572:Drivers/STM32WBxx_HAL_Driver/Src/stm32wbxx_ll_usb.c ****       }
 2499              		.loc 1 572 9 view .LVU857
 2500 0034 43F40143 		orr	r3, r3, #33024
 2501              	.LVL280:
 572:Drivers/STM32WBxx_HAL_Driver/Src/stm32wbxx_ll_usb.c ****       }
 2502              		.loc 1 572 9 is_stmt 0 view .LVU858
 2503 0038 43F08003 		orr	r3, r3, #128
 2504 003c 20F82230 		strh	r3, [r0, r2, lsl #2]	@ movhi
 2505              	.LBE78:
 572:Drivers/STM32WBxx_HAL_Driver/Src/stm32wbxx_ll_usb.c ****       }
 2506              		.loc 1 572 9 is_stmt 1 view .LVU859
 2507 0040 61E2     		b	.L144
 2508              	.LVL281:
 2509              	.L152:
 434:Drivers/STM32WBxx_HAL_Driver/Src/stm32wbxx_ll_usb.c ****     {
 2510              		.loc 1 434 5 view .LVU860
 434:Drivers/STM32WBxx_HAL_Driver/Src/stm32wbxx_ll_usb.c ****     {
 2511              		.loc 1 434 11 is_stmt 0 view .LVU861
 2512 0042 8A69     		ldr	r2, [r1, #24]
 2513 0044 1146     		mov	r1, r2
 2514              	.LVL282:
 434:Drivers/STM32WBxx_HAL_Driver/Src/stm32wbxx_ll_usb.c ****     {
 2515              		.loc 1 434 11 view .LVU862
 2516 0046 1646     		mov	r6, r2
 434:Drivers/STM32WBxx_HAL_Driver/Src/stm32wbxx_ll_usb.c ****     {
 2517              		.loc 1 434 26 view .LVU863
 2518 0048 2269     		ldr	r2, [r4, #16]
 434:Drivers/STM32WBxx_HAL_Driver/Src/stm32wbxx_ll_usb.c ****     {
 2519              		.loc 1 434 8 view .LVU864
 2520 004a 9142     		cmp	r1, r2
 2521 004c 00D9     		bls	.L94
 436:Drivers/STM32WBxx_HAL_Driver/Src/stm32wbxx_ll_usb.c ****     }
 2522              		.loc 1 436 11 view .LVU865
 2523 004e 1646     		mov	r6, r2
 2524              	.L94:
 2525              	.LVL283:
 444:Drivers/STM32WBxx_HAL_Driver/Src/stm32wbxx_ll_usb.c ****     {
 2526              		.loc 1 444 5 is_stmt 1 view .LVU866
 444:Drivers/STM32WBxx_HAL_Driver/Src/stm32wbxx_ll_usb.c ****     {
 2527              		.loc 1 444 11 is_stmt 0 view .LVU867
 2528 0050 217B     		ldrb	r1, [r4, #12]	@ zero_extendqisi2
 444:Drivers/STM32WBxx_HAL_Driver/Src/stm32wbxx_ll_usb.c ****     {
 2529              		.loc 1 444 8 view .LVU868
 2530 0052 41B3     		cbz	r1, .L153
 453:Drivers/STM32WBxx_HAL_Driver/Src/stm32wbxx_ll_usb.c ****       {
 2531              		.loc 1 453 7 is_stmt 1 view .LVU869
 453:Drivers/STM32WBxx_HAL_Driver/Src/stm32wbxx_ll_usb.c ****       {
 2532              		.loc 1 453 13 is_stmt 0 view .LVU870
 2533 0054 E178     		ldrb	r1, [r4, #3]	@ zero_extendqisi2
 453:Drivers/STM32WBxx_HAL_Driver/Src/stm32wbxx_ll_usb.c ****       {
 2534              		.loc 1 453 10 view .LVU871
 2535 0056 0229     		cmp	r1, #2
ARM GAS  C:\Users\Nathan\AppData\Local\Temp\ccuhR5Xd.s 			page 65


 2536 0058 47D0     		beq	.L154
 538:Drivers/STM32WBxx_HAL_Driver/Src/stm32wbxx_ll_usb.c **** 
 2537              		.loc 1 538 9 is_stmt 1 view .LVU872
 538:Drivers/STM32WBxx_HAL_Driver/Src/stm32wbxx_ll_usb.c **** 
 2538              		.loc 1 538 11 is_stmt 0 view .LVU873
 2539 005a 226A     		ldr	r2, [r4, #32]
 538:Drivers/STM32WBxx_HAL_Driver/Src/stm32wbxx_ll_usb.c **** 
 2540              		.loc 1 538 25 view .LVU874
 2541 005c 921B     		subs	r2, r2, r6
 2542 005e 2262     		str	r2, [r4, #32]
 541:Drivers/STM32WBxx_HAL_Driver/Src/stm32wbxx_ll_usb.c ****         {
 2543              		.loc 1 541 9 is_stmt 1 view .LVU875
 541:Drivers/STM32WBxx_HAL_Driver/Src/stm32wbxx_ll_usb.c ****         {
 2544              		.loc 1 541 14 is_stmt 0 view .LVU876
 2545 0060 2278     		ldrb	r2, [r4]	@ zero_extendqisi2
 2546 0062 35F82210 		ldrh	r1, [r5, r2, lsl #2]
 541:Drivers/STM32WBxx_HAL_Driver/Src/stm32wbxx_ll_usb.c ****         {
 2547              		.loc 1 541 12 view .LVU877
 2548 0066 11F0400F 		tst	r1, #64
 2549 006a 00F0F681 		beq	.L128
 544:Drivers/STM32WBxx_HAL_Driver/Src/stm32wbxx_ll_usb.c ****           pmabuffer = ep->pmaaddr1;
 2550              		.loc 1 544 11 is_stmt 1 view .LVU878
 2551              	.LBB79:
 544:Drivers/STM32WBxx_HAL_Driver/Src/stm32wbxx_ll_usb.c ****           pmabuffer = ep->pmaaddr1;
 2552              		.loc 1 544 11 view .LVU879
 2553              	.LVL284:
 544:Drivers/STM32WBxx_HAL_Driver/Src/stm32wbxx_ll_usb.c ****           pmabuffer = ep->pmaaddr1;
 2554              		.loc 1 544 11 view .LVU880
 544:Drivers/STM32WBxx_HAL_Driver/Src/stm32wbxx_ll_usb.c ****           pmabuffer = ep->pmaaddr1;
 2555              		.loc 1 544 11 view .LVU881
 2556 006e 002B     		cmp	r3, #0
 2557 0070 40F0E381 		bne	.L129
 544:Drivers/STM32WBxx_HAL_Driver/Src/stm32wbxx_ll_usb.c ****           pmabuffer = ep->pmaaddr1;
 2558              		.loc 1 544 11 discriminator 1 view .LVU882
 2559              	.LBB80:
 544:Drivers/STM32WBxx_HAL_Driver/Src/stm32wbxx_ll_usb.c ****           pmabuffer = ep->pmaaddr1;
 2560              		.loc 1 544 11 discriminator 1 view .LVU883
 2561              	.LVL285:
 544:Drivers/STM32WBxx_HAL_Driver/Src/stm32wbxx_ll_usb.c ****           pmabuffer = ep->pmaaddr1;
 2562              		.loc 1 544 11 view .LVU884
 544:Drivers/STM32WBxx_HAL_Driver/Src/stm32wbxx_ll_usb.c ****           pmabuffer = ep->pmaaddr1;
 2563              		.loc 1 544 11 view .LVU885
 544:Drivers/STM32WBxx_HAL_Driver/Src/stm32wbxx_ll_usb.c ****           pmabuffer = ep->pmaaddr1;
 2564              		.loc 1 544 11 is_stmt 0 discriminator 1 view .LVU886
 2565 0074 B5F85030 		ldrh	r3, [r5, #80]
 2566 0078 15FA83F3 		uxtah	r3, r5, r3
 2567              	.LVL286:
 544:Drivers/STM32WBxx_HAL_Driver/Src/stm32wbxx_ll_usb.c ****           pmabuffer = ep->pmaaddr1;
 2568              		.loc 1 544 11 is_stmt 1 view .LVU887
 544:Drivers/STM32WBxx_HAL_Driver/Src/stm32wbxx_ll_usb.c ****           pmabuffer = ep->pmaaddr1;
 2569              		.loc 1 544 11 is_stmt 0 discriminator 1 view .LVU888
 2570 007c 03EBC202 		add	r2, r3, r2, lsl #3
 2571              	.LVL287:
 544:Drivers/STM32WBxx_HAL_Driver/Src/stm32wbxx_ll_usb.c ****           pmabuffer = ep->pmaaddr1;
 2572              		.loc 1 544 11 is_stmt 1 view .LVU889
 2573              	.LBB81:
 544:Drivers/STM32WBxx_HAL_Driver/Src/stm32wbxx_ll_usb.c ****           pmabuffer = ep->pmaaddr1;
ARM GAS  C:\Users\Nathan\AppData\Local\Temp\ccuhR5Xd.s 			page 66


 2574              		.loc 1 544 11 view .LVU890
 544:Drivers/STM32WBxx_HAL_Driver/Src/stm32wbxx_ll_usb.c ****           pmabuffer = ep->pmaaddr1;
 2575              		.loc 1 544 11 view .LVU891
 544:Drivers/STM32WBxx_HAL_Driver/Src/stm32wbxx_ll_usb.c ****           pmabuffer = ep->pmaaddr1;
 2576              		.loc 1 544 11 is_stmt 0 discriminator 1 view .LVU892
 2577 0080 B2F80634 		ldrh	r3, [r2, #1030]
 2578              	.LVL288:
 544:Drivers/STM32WBxx_HAL_Driver/Src/stm32wbxx_ll_usb.c ****           pmabuffer = ep->pmaaddr1;
 2579              		.loc 1 544 11 discriminator 1 view .LVU893
 2580 0084 C3F30903 		ubfx	r3, r3, #0, #10
 2581 0088 A2F80634 		strh	r3, [r2, #1030]	@ movhi
 544:Drivers/STM32WBxx_HAL_Driver/Src/stm32wbxx_ll_usb.c ****           pmabuffer = ep->pmaaddr1;
 2582              		.loc 1 544 11 is_stmt 1 view .LVU894
 544:Drivers/STM32WBxx_HAL_Driver/Src/stm32wbxx_ll_usb.c ****           pmabuffer = ep->pmaaddr1;
 2583              		.loc 1 544 11 is_stmt 0 discriminator 1 view .LVU895
 2584 008c 002E     		cmp	r6, #0
 2585 008e 40F0B481 		bne	.L130
 544:Drivers/STM32WBxx_HAL_Driver/Src/stm32wbxx_ll_usb.c ****           pmabuffer = ep->pmaaddr1;
 2586              		.loc 1 544 11 is_stmt 1 discriminator 3 view .LVU896
 2587 0092 B2F80634 		ldrh	r3, [r2, #1030]
 2588 0096 6FEA4343 		mvn	r3, r3, lsl #17
 2589 009a 6FEA5343 		mvn	r3, r3, lsr #17
 2590 009e 9BB2     		uxth	r3, r3
 2591 00a0 A2F80634 		strh	r3, [r2, #1030]	@ movhi
 2592 00a4 D2E1     		b	.L131
 2593              	.LVL289:
 2594              	.L153:
 544:Drivers/STM32WBxx_HAL_Driver/Src/stm32wbxx_ll_usb.c ****           pmabuffer = ep->pmaaddr1;
 2595              		.loc 1 544 11 is_stmt 0 discriminator 3 view .LVU897
 2596              	.LBE81:
 2597              	.LBE80:
 2598              	.LBE79:
 446:Drivers/STM32WBxx_HAL_Driver/Src/stm32wbxx_ll_usb.c ****       PCD_SET_EP_TX_CNT(USBx, ep->num, len);
 2599              		.loc 1 446 7 is_stmt 1 view .LVU898
 2600 00a6 B3B2     		uxth	r3, r6
 2601 00a8 1E46     		mov	r6, r3
 2602              	.LVL290:
 446:Drivers/STM32WBxx_HAL_Driver/Src/stm32wbxx_ll_usb.c ****       PCD_SET_EP_TX_CNT(USBx, ep->num, len);
 2603              		.loc 1 446 7 is_stmt 0 view .LVU899
 2604 00aa E288     		ldrh	r2, [r4, #6]
 2605 00ac 6169     		ldr	r1, [r4, #20]
 2606 00ae 2846     		mov	r0, r5
 2607              	.LVL291:
 446:Drivers/STM32WBxx_HAL_Driver/Src/stm32wbxx_ll_usb.c ****       PCD_SET_EP_TX_CNT(USBx, ep->num, len);
 2608              		.loc 1 446 7 view .LVU900
 2609 00b0 FFF7FEFF 		bl	USB_WritePMA
 2610              	.LVL292:
 447:Drivers/STM32WBxx_HAL_Driver/Src/stm32wbxx_ll_usb.c ****     }
 2611              		.loc 1 447 7 is_stmt 1 view .LVU901
 2612              	.LBB84:
 447:Drivers/STM32WBxx_HAL_Driver/Src/stm32wbxx_ll_usb.c ****     }
 2613              		.loc 1 447 7 view .LVU902
 447:Drivers/STM32WBxx_HAL_Driver/Src/stm32wbxx_ll_usb.c ****     }
 2614              		.loc 1 447 7 view .LVU903
 447:Drivers/STM32WBxx_HAL_Driver/Src/stm32wbxx_ll_usb.c ****     }
 2615              		.loc 1 447 7 view .LVU904
 2616 00b4 B5F85030 		ldrh	r3, [r5, #80]
ARM GAS  C:\Users\Nathan\AppData\Local\Temp\ccuhR5Xd.s 			page 67


 2617 00b8 15FA83F3 		uxtah	r3, r5, r3
 2618              	.LVL293:
 447:Drivers/STM32WBxx_HAL_Driver/Src/stm32wbxx_ll_usb.c ****     }
 2619              		.loc 1 447 7 view .LVU905
 2620 00bc 2278     		ldrb	r2, [r4]	@ zero_extendqisi2
 2621 00be 03EBC203 		add	r3, r3, r2, lsl #3
 2622              	.LVL294:
 447:Drivers/STM32WBxx_HAL_Driver/Src/stm32wbxx_ll_usb.c ****     }
 2623              		.loc 1 447 7 view .LVU906
 2624 00c2 A3F80264 		strh	r6, [r3, #1026]	@ movhi
 2625              	.LBE84:
 447:Drivers/STM32WBxx_HAL_Driver/Src/stm32wbxx_ll_usb.c ****     }
 2626              		.loc 1 447 7 view .LVU907
 2627              	.LVL295:
 2628              	.L96:
 563:Drivers/STM32WBxx_HAL_Driver/Src/stm32wbxx_ll_usb.c ****   }
 2629              		.loc 1 563 5 view .LVU908
 2630              	.LBB85:
 563:Drivers/STM32WBxx_HAL_Driver/Src/stm32wbxx_ll_usb.c ****   }
 2631              		.loc 1 563 5 view .LVU909
 563:Drivers/STM32WBxx_HAL_Driver/Src/stm32wbxx_ll_usb.c ****   }
 2632              		.loc 1 563 5 view .LVU910
 2633 00c6 2278     		ldrb	r2, [r4]	@ zero_extendqisi2
 2634 00c8 35F82230 		ldrh	r3, [r5, r2, lsl #2]
 2635 00cc 9BB2     		uxth	r3, r3
 2636 00ce 23F4E043 		bic	r3, r3, #28672
 2637 00d2 23F04003 		bic	r3, r3, #64
 563:Drivers/STM32WBxx_HAL_Driver/Src/stm32wbxx_ll_usb.c ****   }
 2638              		.loc 1 563 5 view .LVU911
 563:Drivers/STM32WBxx_HAL_Driver/Src/stm32wbxx_ll_usb.c ****   }
 2639              		.loc 1 563 5 discriminator 1 view .LVU912
 2640              	.LVL296:
 563:Drivers/STM32WBxx_HAL_Driver/Src/stm32wbxx_ll_usb.c ****   }
 2641              		.loc 1 563 5 discriminator 3 view .LVU913
 563:Drivers/STM32WBxx_HAL_Driver/Src/stm32wbxx_ll_usb.c ****   }
 2642              		.loc 1 563 5 discriminator 4 view .LVU914
 2643 00d6 83F03003 		eor	r3, r3, #48
 2644              	.LVL297:
 563:Drivers/STM32WBxx_HAL_Driver/Src/stm32wbxx_ll_usb.c ****   }
 2645              		.loc 1 563 5 discriminator 6 view .LVU915
 2646 00da 43F40043 		orr	r3, r3, #32768
 2647              	.LVL298:
 563:Drivers/STM32WBxx_HAL_Driver/Src/stm32wbxx_ll_usb.c ****   }
 2648              		.loc 1 563 5 is_stmt 0 discriminator 6 view .LVU916
 2649 00de 43F08003 		orr	r3, r3, #128
 2650 00e2 25F82230 		strh	r3, [r5, r2, lsl #2]	@ movhi
 2651              	.LBE85:
 563:Drivers/STM32WBxx_HAL_Driver/Src/stm32wbxx_ll_usb.c ****   }
 2652              		.loc 1 563 5 is_stmt 1 view .LVU917
 626:Drivers/STM32WBxx_HAL_Driver/Src/stm32wbxx_ll_usb.c **** }
 2653              		.loc 1 626 10 is_stmt 0 view .LVU918
 2654 00e6 0020     		movs	r0, #0
 2655 00e8 24E2     		b	.L141
 2656              	.LVL299:
 2657              	.L154:
 455:Drivers/STM32WBxx_HAL_Driver/Src/stm32wbxx_ll_usb.c ****         {
 2658              		.loc 1 455 9 is_stmt 1 view .LVU919
ARM GAS  C:\Users\Nathan\AppData\Local\Temp\ccuhR5Xd.s 			page 68


 455:Drivers/STM32WBxx_HAL_Driver/Src/stm32wbxx_ll_usb.c ****         {
 2659              		.loc 1 455 15 is_stmt 0 view .LVU920
 2660 00ea 236A     		ldr	r3, [r4, #32]
 455:Drivers/STM32WBxx_HAL_Driver/Src/stm32wbxx_ll_usb.c ****         {
 2661              		.loc 1 455 12 view .LVU921
 2662 00ec 9A42     		cmp	r2, r3
 2663 00ee 80F06681 		bcs	.L98
 458:Drivers/STM32WBxx_HAL_Driver/Src/stm32wbxx_ll_usb.c **** 
 2664              		.loc 1 458 11 is_stmt 1 view .LVU922
 2665              	.LBB86:
 458:Drivers/STM32WBxx_HAL_Driver/Src/stm32wbxx_ll_usb.c **** 
 2666              		.loc 1 458 11 view .LVU923
 458:Drivers/STM32WBxx_HAL_Driver/Src/stm32wbxx_ll_usb.c **** 
 2667              		.loc 1 458 11 view .LVU924
 2668 00f2 2278     		ldrb	r2, [r4]	@ zero_extendqisi2
 2669 00f4 35F82230 		ldrh	r3, [r5, r2, lsl #2]
 2670 00f8 9BB2     		uxth	r3, r3
 2671 00fa 23F4E043 		bic	r3, r3, #28672
 2672 00fe 23F07003 		bic	r3, r3, #112
 2673              	.LVL300:
 458:Drivers/STM32WBxx_HAL_Driver/Src/stm32wbxx_ll_usb.c **** 
 2674              		.loc 1 458 11 view .LVU925
 2675 0102 43F40143 		orr	r3, r3, #33024
 2676              	.LVL301:
 458:Drivers/STM32WBxx_HAL_Driver/Src/stm32wbxx_ll_usb.c **** 
 2677              		.loc 1 458 11 is_stmt 0 view .LVU926
 2678 0106 43F08003 		orr	r3, r3, #128
 2679 010a 25F82230 		strh	r3, [r5, r2, lsl #2]	@ movhi
 2680              	.LBE86:
 458:Drivers/STM32WBxx_HAL_Driver/Src/stm32wbxx_ll_usb.c **** 
 2681              		.loc 1 458 11 is_stmt 1 view .LVU927
 461:Drivers/STM32WBxx_HAL_Driver/Src/stm32wbxx_ll_usb.c **** 
 2682              		.loc 1 461 11 view .LVU928
 461:Drivers/STM32WBxx_HAL_Driver/Src/stm32wbxx_ll_usb.c **** 
 2683              		.loc 1 461 13 is_stmt 0 view .LVU929
 2684 010e 236A     		ldr	r3, [r4, #32]
 461:Drivers/STM32WBxx_HAL_Driver/Src/stm32wbxx_ll_usb.c **** 
 2685              		.loc 1 461 27 view .LVU930
 2686 0110 9B1B     		subs	r3, r3, r6
 2687 0112 2362     		str	r3, [r4, #32]
 464:Drivers/STM32WBxx_HAL_Driver/Src/stm32wbxx_ll_usb.c ****           {
 2688              		.loc 1 464 11 is_stmt 1 view .LVU931
 464:Drivers/STM32WBxx_HAL_Driver/Src/stm32wbxx_ll_usb.c ****           {
 2689              		.loc 1 464 16 is_stmt 0 view .LVU932
 2690 0114 2378     		ldrb	r3, [r4]	@ zero_extendqisi2
 2691 0116 35F82320 		ldrh	r2, [r5, r3, lsl #2]
 464:Drivers/STM32WBxx_HAL_Driver/Src/stm32wbxx_ll_usb.c ****           {
 2692              		.loc 1 464 14 view .LVU933
 2693 011a 12F0400F 		tst	r2, #64
 2694 011e 00F0A780 		beq	.L99
 467:Drivers/STM32WBxx_HAL_Driver/Src/stm32wbxx_ll_usb.c ****             pmabuffer = ep->pmaaddr1;
 2695              		.loc 1 467 13 is_stmt 1 view .LVU934
 2696              	.LBB87:
 467:Drivers/STM32WBxx_HAL_Driver/Src/stm32wbxx_ll_usb.c ****             pmabuffer = ep->pmaaddr1;
 2697              		.loc 1 467 13 view .LVU935
 2698              	.LVL302:
 467:Drivers/STM32WBxx_HAL_Driver/Src/stm32wbxx_ll_usb.c ****             pmabuffer = ep->pmaaddr1;
ARM GAS  C:\Users\Nathan\AppData\Local\Temp\ccuhR5Xd.s 			page 69


 2699              		.loc 1 467 13 view .LVU936
 467:Drivers/STM32WBxx_HAL_Driver/Src/stm32wbxx_ll_usb.c ****             pmabuffer = ep->pmaaddr1;
 2700              		.loc 1 467 13 view .LVU937
 2701 0122 6278     		ldrb	r2, [r4, #1]	@ zero_extendqisi2
 2702 0124 B2BB     		cbnz	r2, .L100
 467:Drivers/STM32WBxx_HAL_Driver/Src/stm32wbxx_ll_usb.c ****             pmabuffer = ep->pmaaddr1;
 2703              		.loc 1 467 13 discriminator 1 view .LVU938
 2704              	.LBB88:
 467:Drivers/STM32WBxx_HAL_Driver/Src/stm32wbxx_ll_usb.c ****             pmabuffer = ep->pmaaddr1;
 2705              		.loc 1 467 13 discriminator 1 view .LVU939
 2706              	.LVL303:
 467:Drivers/STM32WBxx_HAL_Driver/Src/stm32wbxx_ll_usb.c ****             pmabuffer = ep->pmaaddr1;
 2707              		.loc 1 467 13 view .LVU940
 467:Drivers/STM32WBxx_HAL_Driver/Src/stm32wbxx_ll_usb.c ****             pmabuffer = ep->pmaaddr1;
 2708              		.loc 1 467 13 view .LVU941
 467:Drivers/STM32WBxx_HAL_Driver/Src/stm32wbxx_ll_usb.c ****             pmabuffer = ep->pmaaddr1;
 2709              		.loc 1 467 13 is_stmt 0 discriminator 1 view .LVU942
 2710 0126 B5F85020 		ldrh	r2, [r5, #80]
 2711 012a 15FA82F2 		uxtah	r2, r5, r2
 2712              	.LVL304:
 467:Drivers/STM32WBxx_HAL_Driver/Src/stm32wbxx_ll_usb.c ****             pmabuffer = ep->pmaaddr1;
 2713              		.loc 1 467 13 is_stmt 1 view .LVU943
 467:Drivers/STM32WBxx_HAL_Driver/Src/stm32wbxx_ll_usb.c ****             pmabuffer = ep->pmaaddr1;
 2714              		.loc 1 467 13 is_stmt 0 discriminator 1 view .LVU944
 2715 012e 02EBC303 		add	r3, r2, r3, lsl #3
 2716              	.LVL305:
 467:Drivers/STM32WBxx_HAL_Driver/Src/stm32wbxx_ll_usb.c ****             pmabuffer = ep->pmaaddr1;
 2717              		.loc 1 467 13 is_stmt 1 view .LVU945
 2718              	.LBB89:
 467:Drivers/STM32WBxx_HAL_Driver/Src/stm32wbxx_ll_usb.c ****             pmabuffer = ep->pmaaddr1;
 2719              		.loc 1 467 13 view .LVU946
 467:Drivers/STM32WBxx_HAL_Driver/Src/stm32wbxx_ll_usb.c ****             pmabuffer = ep->pmaaddr1;
 2720              		.loc 1 467 13 view .LVU947
 467:Drivers/STM32WBxx_HAL_Driver/Src/stm32wbxx_ll_usb.c ****             pmabuffer = ep->pmaaddr1;
 2721              		.loc 1 467 13 is_stmt 0 discriminator 1 view .LVU948
 2722 0132 B3F80624 		ldrh	r2, [r3, #1030]
 2723              	.LVL306:
 467:Drivers/STM32WBxx_HAL_Driver/Src/stm32wbxx_ll_usb.c ****             pmabuffer = ep->pmaaddr1;
 2724              		.loc 1 467 13 discriminator 1 view .LVU949
 2725 0136 C2F30902 		ubfx	r2, r2, #0, #10
 2726 013a A3F80624 		strh	r2, [r3, #1030]	@ movhi
 467:Drivers/STM32WBxx_HAL_Driver/Src/stm32wbxx_ll_usb.c ****             pmabuffer = ep->pmaaddr1;
 2727              		.loc 1 467 13 is_stmt 1 view .LVU950
 467:Drivers/STM32WBxx_HAL_Driver/Src/stm32wbxx_ll_usb.c ****             pmabuffer = ep->pmaaddr1;
 2728              		.loc 1 467 13 is_stmt 0 discriminator 1 view .LVU951
 2729 013e 4EB9     		cbnz	r6, .L101
 467:Drivers/STM32WBxx_HAL_Driver/Src/stm32wbxx_ll_usb.c ****             pmabuffer = ep->pmaaddr1;
 2730              		.loc 1 467 13 is_stmt 1 discriminator 3 view .LVU952
 2731 0140 B3F80624 		ldrh	r2, [r3, #1030]
 2732 0144 6FEA4242 		mvn	r2, r2, lsl #17
 2733 0148 6FEA5242 		mvn	r2, r2, lsr #17
 2734 014c 92B2     		uxth	r2, r2
 2735 014e A3F80624 		strh	r2, [r3, #1030]	@ movhi
 2736 0152 21E0     		b	.L102
 2737              	.L101:
 467:Drivers/STM32WBxx_HAL_Driver/Src/stm32wbxx_ll_usb.c ****             pmabuffer = ep->pmaaddr1;
 2738              		.loc 1 467 13 discriminator 4 view .LVU953
ARM GAS  C:\Users\Nathan\AppData\Local\Temp\ccuhR5Xd.s 			page 70


 2739 0154 3E2E     		cmp	r6, #62
 2740 0156 0DD8     		bhi	.L103
 467:Drivers/STM32WBxx_HAL_Driver/Src/stm32wbxx_ll_usb.c ****             pmabuffer = ep->pmaaddr1;
 2741              		.loc 1 467 13 discriminator 5 view .LVU954
 467:Drivers/STM32WBxx_HAL_Driver/Src/stm32wbxx_ll_usb.c ****             pmabuffer = ep->pmaaddr1;
 2742              		.loc 1 467 13 discriminator 5 view .LVU955
 2743 0158 7208     		lsrs	r2, r6, #1
 2744              	.LVL307:
 467:Drivers/STM32WBxx_HAL_Driver/Src/stm32wbxx_ll_usb.c ****             pmabuffer = ep->pmaaddr1;
 2745              		.loc 1 467 13 view .LVU956
 467:Drivers/STM32WBxx_HAL_Driver/Src/stm32wbxx_ll_usb.c ****             pmabuffer = ep->pmaaddr1;
 2746              		.loc 1 467 13 is_stmt 0 discriminator 5 view .LVU957
 2747 015a 16F0010F 		tst	r6, #1
 2748 015e 00D0     		beq	.L104
 467:Drivers/STM32WBxx_HAL_Driver/Src/stm32wbxx_ll_usb.c ****             pmabuffer = ep->pmaaddr1;
 2749              		.loc 1 467 13 is_stmt 1 discriminator 7 view .LVU958
 2750 0160 0132     		adds	r2, r2, #1
 2751              	.LVL308:
 2752              	.L104:
 467:Drivers/STM32WBxx_HAL_Driver/Src/stm32wbxx_ll_usb.c ****             pmabuffer = ep->pmaaddr1;
 2753              		.loc 1 467 13 discriminator 9 view .LVU959
 2754 0162 B3F80614 		ldrh	r1, [r3, #1030]
 2755 0166 89B2     		uxth	r1, r1
 2756 0168 9202     		lsls	r2, r2, #10
 2757              	.LVL309:
 467:Drivers/STM32WBxx_HAL_Driver/Src/stm32wbxx_ll_usb.c ****             pmabuffer = ep->pmaaddr1;
 2758              		.loc 1 467 13 is_stmt 0 discriminator 9 view .LVU960
 2759 016a 92B2     		uxth	r2, r2
 2760 016c 0A43     		orrs	r2, r2, r1
 2761 016e A3F80624 		strh	r2, [r3, #1030]	@ movhi
 467:Drivers/STM32WBxx_HAL_Driver/Src/stm32wbxx_ll_usb.c ****             pmabuffer = ep->pmaaddr1;
 2762              		.loc 1 467 13 is_stmt 1 view .LVU961
 2763 0172 11E0     		b	.L102
 2764              	.LVL310:
 2765              	.L103:
 467:Drivers/STM32WBxx_HAL_Driver/Src/stm32wbxx_ll_usb.c ****             pmabuffer = ep->pmaaddr1;
 2766              		.loc 1 467 13 discriminator 6 view .LVU962
 467:Drivers/STM32WBxx_HAL_Driver/Src/stm32wbxx_ll_usb.c ****             pmabuffer = ep->pmaaddr1;
 2767              		.loc 1 467 13 discriminator 6 view .LVU963
 2768 0174 7109     		lsrs	r1, r6, #5
 2769              	.LVL311:
 467:Drivers/STM32WBxx_HAL_Driver/Src/stm32wbxx_ll_usb.c ****             pmabuffer = ep->pmaaddr1;
 2770              		.loc 1 467 13 view .LVU964
 467:Drivers/STM32WBxx_HAL_Driver/Src/stm32wbxx_ll_usb.c ****             pmabuffer = ep->pmaaddr1;
 2771              		.loc 1 467 13 is_stmt 0 discriminator 6 view .LVU965
 2772 0176 16F01F0F 		tst	r6, #31
 2773 017a 00D1     		bne	.L105
 467:Drivers/STM32WBxx_HAL_Driver/Src/stm32wbxx_ll_usb.c ****             pmabuffer = ep->pmaaddr1;
 2774              		.loc 1 467 13 is_stmt 1 discriminator 10 view .LVU966
 2775 017c 0139     		subs	r1, r1, #1
 2776              	.LVL312:
 2777              	.L105:
 467:Drivers/STM32WBxx_HAL_Driver/Src/stm32wbxx_ll_usb.c ****             pmabuffer = ep->pmaaddr1;
 2778              		.loc 1 467 13 discriminator 12 view .LVU967
 2779 017e B3F80624 		ldrh	r2, [r3, #1030]
 2780 0182 92B2     		uxth	r2, r2
 2781 0184 8902     		lsls	r1, r1, #10
ARM GAS  C:\Users\Nathan\AppData\Local\Temp\ccuhR5Xd.s 			page 71


 2782              	.LVL313:
 467:Drivers/STM32WBxx_HAL_Driver/Src/stm32wbxx_ll_usb.c ****             pmabuffer = ep->pmaaddr1;
 2783              		.loc 1 467 13 is_stmt 0 discriminator 12 view .LVU968
 2784 0186 89B2     		uxth	r1, r1
 2785 0188 0A43     		orrs	r2, r2, r1
 2786 018a 42F40042 		orr	r2, r2, #32768
 2787 018e A3F80624 		strh	r2, [r3, #1030]	@ movhi
 2788 0192 01E0     		b	.L102
 2789              	.LVL314:
 2790              	.L100:
 467:Drivers/STM32WBxx_HAL_Driver/Src/stm32wbxx_ll_usb.c ****             pmabuffer = ep->pmaaddr1;
 2791              		.loc 1 467 13 discriminator 12 view .LVU969
 2792              	.LBE89:
 2793              	.LBE88:
 467:Drivers/STM32WBxx_HAL_Driver/Src/stm32wbxx_ll_usb.c ****             pmabuffer = ep->pmaaddr1;
 2794              		.loc 1 467 13 is_stmt 1 discriminator 2 view .LVU970
 2795 0194 012A     		cmp	r2, #1
 2796 0196 29D0     		beq	.L155
 2797              	.LVL315:
 2798              	.L102:
 467:Drivers/STM32WBxx_HAL_Driver/Src/stm32wbxx_ll_usb.c ****             pmabuffer = ep->pmaaddr1;
 2799              		.loc 1 467 13 is_stmt 0 discriminator 2 view .LVU971
 2800              	.LBE87:
 467:Drivers/STM32WBxx_HAL_Driver/Src/stm32wbxx_ll_usb.c ****             pmabuffer = ep->pmaaddr1;
 2801              		.loc 1 467 13 is_stmt 1 view .LVU972
 468:Drivers/STM32WBxx_HAL_Driver/Src/stm32wbxx_ll_usb.c **** 
 2802              		.loc 1 468 13 view .LVU973
 471:Drivers/STM32WBxx_HAL_Driver/Src/stm32wbxx_ll_usb.c ****             ep->xfer_buff += len;
 2803              		.loc 1 471 13 view .LVU974
 2804 0198 B3B2     		uxth	r3, r6
 2805 019a 6289     		ldrh	r2, [r4, #10]
 2806 019c 6169     		ldr	r1, [r4, #20]
 2807 019e 2846     		mov	r0, r5
 2808              	.LVL316:
 471:Drivers/STM32WBxx_HAL_Driver/Src/stm32wbxx_ll_usb.c ****             ep->xfer_buff += len;
 2809              		.loc 1 471 13 is_stmt 0 view .LVU975
 2810 01a0 FFF7FEFF 		bl	USB_WritePMA
 2811              	.LVL317:
 472:Drivers/STM32WBxx_HAL_Driver/Src/stm32wbxx_ll_usb.c **** 
 2812              		.loc 1 472 13 is_stmt 1 view .LVU976
 472:Drivers/STM32WBxx_HAL_Driver/Src/stm32wbxx_ll_usb.c **** 
 2813              		.loc 1 472 15 is_stmt 0 view .LVU977
 2814 01a4 6369     		ldr	r3, [r4, #20]
 472:Drivers/STM32WBxx_HAL_Driver/Src/stm32wbxx_ll_usb.c **** 
 2815              		.loc 1 472 27 view .LVU978
 2816 01a6 3344     		add	r3, r3, r6
 2817 01a8 6361     		str	r3, [r4, #20]
 474:Drivers/STM32WBxx_HAL_Driver/Src/stm32wbxx_ll_usb.c ****             {
 2818              		.loc 1 474 13 is_stmt 1 view .LVU979
 474:Drivers/STM32WBxx_HAL_Driver/Src/stm32wbxx_ll_usb.c ****             {
 2819              		.loc 1 474 19 is_stmt 0 view .LVU980
 2820 01aa 236A     		ldr	r3, [r4, #32]
 474:Drivers/STM32WBxx_HAL_Driver/Src/stm32wbxx_ll_usb.c ****             {
 2821              		.loc 1 474 37 view .LVU981
 2822 01ac 2269     		ldr	r2, [r4, #16]
 474:Drivers/STM32WBxx_HAL_Driver/Src/stm32wbxx_ll_usb.c ****             {
 2823              		.loc 1 474 16 view .LVU982
ARM GAS  C:\Users\Nathan\AppData\Local\Temp\ccuhR5Xd.s 			page 72


 2824 01ae 9342     		cmp	r3, r2
 2825 01b0 26D9     		bls	.L106
 476:Drivers/STM32WBxx_HAL_Driver/Src/stm32wbxx_ll_usb.c ****             }
 2826              		.loc 1 476 15 is_stmt 1 view .LVU983
 476:Drivers/STM32WBxx_HAL_Driver/Src/stm32wbxx_ll_usb.c ****             }
 2827              		.loc 1 476 31 is_stmt 0 view .LVU984
 2828 01b2 9B1B     		subs	r3, r3, r6
 2829 01b4 2362     		str	r3, [r4, #32]
 2830              	.L107:
 485:Drivers/STM32WBxx_HAL_Driver/Src/stm32wbxx_ll_usb.c ****             pmabuffer = ep->pmaaddr0;
 2831              		.loc 1 485 13 is_stmt 1 view .LVU985
 485:Drivers/STM32WBxx_HAL_Driver/Src/stm32wbxx_ll_usb.c ****             pmabuffer = ep->pmaaddr0;
 2832              		.loc 1 485 13 view .LVU986
 2833 01b6 6378     		ldrb	r3, [r4, #1]	@ zero_extendqisi2
 2834 01b8 002B     		cmp	r3, #0
 2835 01ba 45D1     		bne	.L108
 485:Drivers/STM32WBxx_HAL_Driver/Src/stm32wbxx_ll_usb.c ****             pmabuffer = ep->pmaaddr0;
 2836              		.loc 1 485 13 discriminator 1 view .LVU987
 2837              	.LBB90:
 485:Drivers/STM32WBxx_HAL_Driver/Src/stm32wbxx_ll_usb.c ****             pmabuffer = ep->pmaaddr0;
 2838              		.loc 1 485 13 discriminator 1 view .LVU988
 2839              	.LVL318:
 485:Drivers/STM32WBxx_HAL_Driver/Src/stm32wbxx_ll_usb.c ****             pmabuffer = ep->pmaaddr0;
 2840              		.loc 1 485 13 view .LVU989
 485:Drivers/STM32WBxx_HAL_Driver/Src/stm32wbxx_ll_usb.c ****             pmabuffer = ep->pmaaddr0;
 2841              		.loc 1 485 13 view .LVU990
 485:Drivers/STM32WBxx_HAL_Driver/Src/stm32wbxx_ll_usb.c ****             pmabuffer = ep->pmaaddr0;
 2842              		.loc 1 485 13 is_stmt 0 discriminator 1 view .LVU991
 2843 01bc B5F85030 		ldrh	r3, [r5, #80]
 2844 01c0 15FA83F3 		uxtah	r3, r5, r3
 2845              	.LVL319:
 485:Drivers/STM32WBxx_HAL_Driver/Src/stm32wbxx_ll_usb.c ****             pmabuffer = ep->pmaaddr0;
 2846              		.loc 1 485 13 is_stmt 1 view .LVU992
 485:Drivers/STM32WBxx_HAL_Driver/Src/stm32wbxx_ll_usb.c ****             pmabuffer = ep->pmaaddr0;
 2847              		.loc 1 485 13 is_stmt 0 discriminator 1 view .LVU993
 2848 01c4 2278     		ldrb	r2, [r4]	@ zero_extendqisi2
 2849 01c6 03EBC203 		add	r3, r3, r2, lsl #3
 2850              	.LVL320:
 485:Drivers/STM32WBxx_HAL_Driver/Src/stm32wbxx_ll_usb.c ****             pmabuffer = ep->pmaaddr0;
 2851              		.loc 1 485 13 is_stmt 1 view .LVU994
 2852              	.LBB91:
 485:Drivers/STM32WBxx_HAL_Driver/Src/stm32wbxx_ll_usb.c ****             pmabuffer = ep->pmaaddr0;
 2853              		.loc 1 485 13 view .LVU995
 485:Drivers/STM32WBxx_HAL_Driver/Src/stm32wbxx_ll_usb.c ****             pmabuffer = ep->pmaaddr0;
 2854              		.loc 1 485 13 view .LVU996
 485:Drivers/STM32WBxx_HAL_Driver/Src/stm32wbxx_ll_usb.c ****             pmabuffer = ep->pmaaddr0;
 2855              		.loc 1 485 13 is_stmt 0 discriminator 1 view .LVU997
 2856 01ca B3F80224 		ldrh	r2, [r3, #1026]
 2857 01ce C2F30902 		ubfx	r2, r2, #0, #10
 2858 01d2 A3F80224 		strh	r2, [r3, #1026]	@ movhi
 485:Drivers/STM32WBxx_HAL_Driver/Src/stm32wbxx_ll_usb.c ****             pmabuffer = ep->pmaaddr0;
 2859              		.loc 1 485 13 is_stmt 1 view .LVU998
 485:Drivers/STM32WBxx_HAL_Driver/Src/stm32wbxx_ll_usb.c ****             pmabuffer = ep->pmaaddr0;
 2860              		.loc 1 485 13 is_stmt 0 discriminator 1 view .LVU999
 2861 01d6 BEB9     		cbnz	r6, .L109
 485:Drivers/STM32WBxx_HAL_Driver/Src/stm32wbxx_ll_usb.c ****             pmabuffer = ep->pmaaddr0;
 2862              		.loc 1 485 13 is_stmt 1 discriminator 3 view .LVU1000
ARM GAS  C:\Users\Nathan\AppData\Local\Temp\ccuhR5Xd.s 			page 73


 2863 01d8 B3F80224 		ldrh	r2, [r3, #1026]
 2864 01dc 6FEA4242 		mvn	r2, r2, lsl #17
 2865 01e0 6FEA5242 		mvn	r2, r2, lsr #17
 2866 01e4 92B2     		uxth	r2, r2
 2867 01e6 A3F80224 		strh	r2, [r3, #1026]	@ movhi
 2868 01ea 2FE0     		b	.L110
 2869              	.LVL321:
 2870              	.L155:
 485:Drivers/STM32WBxx_HAL_Driver/Src/stm32wbxx_ll_usb.c ****             pmabuffer = ep->pmaaddr0;
 2871              		.loc 1 485 13 is_stmt 0 discriminator 3 view .LVU1001
 2872              	.LBE91:
 2873              	.LBE90:
 2874              	.LBB93:
 467:Drivers/STM32WBxx_HAL_Driver/Src/stm32wbxx_ll_usb.c ****             pmabuffer = ep->pmaaddr1;
 2875              		.loc 1 467 13 is_stmt 1 discriminator 13 view .LVU1002
 2876 01ec B5F85020 		ldrh	r2, [r5, #80]
 2877 01f0 15FA82F2 		uxtah	r2, r5, r2
 2878              	.LVL322:
 467:Drivers/STM32WBxx_HAL_Driver/Src/stm32wbxx_ll_usb.c ****             pmabuffer = ep->pmaaddr1;
 2879              		.loc 1 467 13 view .LVU1003
 467:Drivers/STM32WBxx_HAL_Driver/Src/stm32wbxx_ll_usb.c ****             pmabuffer = ep->pmaaddr1;
 2880              		.loc 1 467 13 is_stmt 0 discriminator 13 view .LVU1004
 2881 01f4 02EBC303 		add	r3, r2, r3, lsl #3
 2882              	.LVL323:
 467:Drivers/STM32WBxx_HAL_Driver/Src/stm32wbxx_ll_usb.c ****             pmabuffer = ep->pmaaddr1;
 2883              		.loc 1 467 13 is_stmt 1 view .LVU1005
 467:Drivers/STM32WBxx_HAL_Driver/Src/stm32wbxx_ll_usb.c ****             pmabuffer = ep->pmaaddr1;
 2884              		.loc 1 467 13 is_stmt 0 discriminator 13 view .LVU1006
 2885 01f8 B2B2     		uxth	r2, r6
 2886              	.LVL324:
 467:Drivers/STM32WBxx_HAL_Driver/Src/stm32wbxx_ll_usb.c ****             pmabuffer = ep->pmaaddr1;
 2887              		.loc 1 467 13 discriminator 13 view .LVU1007
 2888 01fa A3F80624 		strh	r2, [r3, #1030]	@ movhi
 2889 01fe CBE7     		b	.L102
 2890              	.LVL325:
 2891              	.L106:
 467:Drivers/STM32WBxx_HAL_Driver/Src/stm32wbxx_ll_usb.c ****             pmabuffer = ep->pmaaddr1;
 2892              		.loc 1 467 13 discriminator 13 view .LVU1008
 2893              	.LBE93:
 480:Drivers/STM32WBxx_HAL_Driver/Src/stm32wbxx_ll_usb.c ****               ep->xfer_len_db = 0U;
 2894              		.loc 1 480 15 is_stmt 1 view .LVU1009
 481:Drivers/STM32WBxx_HAL_Driver/Src/stm32wbxx_ll_usb.c ****             }
 2895              		.loc 1 481 15 view .LVU1010
 481:Drivers/STM32WBxx_HAL_Driver/Src/stm32wbxx_ll_usb.c ****             }
 2896              		.loc 1 481 31 is_stmt 0 view .LVU1011
 2897 0200 0022     		movs	r2, #0
 2898 0202 2262     		str	r2, [r4, #32]
 480:Drivers/STM32WBxx_HAL_Driver/Src/stm32wbxx_ll_usb.c ****               ep->xfer_len_db = 0U;
 2899              		.loc 1 480 19 view .LVU1012
 2900 0204 1E46     		mov	r6, r3
 2901 0206 D6E7     		b	.L107
 2902              	.LVL326:
 2903              	.L109:
 2904              	.LBB94:
 2905              	.LBB92:
 485:Drivers/STM32WBxx_HAL_Driver/Src/stm32wbxx_ll_usb.c ****             pmabuffer = ep->pmaaddr0;
 2906              		.loc 1 485 13 is_stmt 1 discriminator 4 view .LVU1013
ARM GAS  C:\Users\Nathan\AppData\Local\Temp\ccuhR5Xd.s 			page 74


 2907 0208 3E2E     		cmp	r6, #62
 2908 020a 0DD8     		bhi	.L111
 485:Drivers/STM32WBxx_HAL_Driver/Src/stm32wbxx_ll_usb.c ****             pmabuffer = ep->pmaaddr0;
 2909              		.loc 1 485 13 discriminator 5 view .LVU1014
 485:Drivers/STM32WBxx_HAL_Driver/Src/stm32wbxx_ll_usb.c ****             pmabuffer = ep->pmaaddr0;
 2910              		.loc 1 485 13 discriminator 5 view .LVU1015
 2911 020c 7208     		lsrs	r2, r6, #1
 2912              	.LVL327:
 485:Drivers/STM32WBxx_HAL_Driver/Src/stm32wbxx_ll_usb.c ****             pmabuffer = ep->pmaaddr0;
 2913              		.loc 1 485 13 view .LVU1016
 485:Drivers/STM32WBxx_HAL_Driver/Src/stm32wbxx_ll_usb.c ****             pmabuffer = ep->pmaaddr0;
 2914              		.loc 1 485 13 is_stmt 0 discriminator 5 view .LVU1017
 2915 020e 16F0010F 		tst	r6, #1
 2916 0212 00D0     		beq	.L112
 485:Drivers/STM32WBxx_HAL_Driver/Src/stm32wbxx_ll_usb.c ****             pmabuffer = ep->pmaaddr0;
 2917              		.loc 1 485 13 is_stmt 1 discriminator 7 view .LVU1018
 2918 0214 0132     		adds	r2, r2, #1
 2919              	.LVL328:
 2920              	.L112:
 485:Drivers/STM32WBxx_HAL_Driver/Src/stm32wbxx_ll_usb.c ****             pmabuffer = ep->pmaaddr0;
 2921              		.loc 1 485 13 discriminator 9 view .LVU1019
 2922 0216 B3F80214 		ldrh	r1, [r3, #1026]
 2923 021a 89B2     		uxth	r1, r1
 2924 021c 9202     		lsls	r2, r2, #10
 2925              	.LVL329:
 485:Drivers/STM32WBxx_HAL_Driver/Src/stm32wbxx_ll_usb.c ****             pmabuffer = ep->pmaaddr0;
 2926              		.loc 1 485 13 is_stmt 0 discriminator 9 view .LVU1020
 2927 021e 92B2     		uxth	r2, r2
 2928 0220 0A43     		orrs	r2, r2, r1
 2929 0222 A3F80224 		strh	r2, [r3, #1026]	@ movhi
 485:Drivers/STM32WBxx_HAL_Driver/Src/stm32wbxx_ll_usb.c ****             pmabuffer = ep->pmaaddr0;
 2930              		.loc 1 485 13 is_stmt 1 view .LVU1021
 2931 0226 11E0     		b	.L110
 2932              	.LVL330:
 2933              	.L111:
 485:Drivers/STM32WBxx_HAL_Driver/Src/stm32wbxx_ll_usb.c ****             pmabuffer = ep->pmaaddr0;
 2934              		.loc 1 485 13 discriminator 6 view .LVU1022
 485:Drivers/STM32WBxx_HAL_Driver/Src/stm32wbxx_ll_usb.c ****             pmabuffer = ep->pmaaddr0;
 2935              		.loc 1 485 13 discriminator 6 view .LVU1023
 2936 0228 7109     		lsrs	r1, r6, #5
 2937              	.LVL331:
 485:Drivers/STM32WBxx_HAL_Driver/Src/stm32wbxx_ll_usb.c ****             pmabuffer = ep->pmaaddr0;
 2938              		.loc 1 485 13 view .LVU1024
 485:Drivers/STM32WBxx_HAL_Driver/Src/stm32wbxx_ll_usb.c ****             pmabuffer = ep->pmaaddr0;
 2939              		.loc 1 485 13 is_stmt 0 discriminator 6 view .LVU1025
 2940 022a 16F01F0F 		tst	r6, #31
 2941 022e 00D1     		bne	.L113
 485:Drivers/STM32WBxx_HAL_Driver/Src/stm32wbxx_ll_usb.c ****             pmabuffer = ep->pmaaddr0;
 2942              		.loc 1 485 13 is_stmt 1 discriminator 10 view .LVU1026
 2943 0230 0139     		subs	r1, r1, #1
 2944              	.LVL332:
 2945              	.L113:
 485:Drivers/STM32WBxx_HAL_Driver/Src/stm32wbxx_ll_usb.c ****             pmabuffer = ep->pmaaddr0;
 2946              		.loc 1 485 13 discriminator 12 view .LVU1027
 2947 0232 B3F80224 		ldrh	r2, [r3, #1026]
 2948 0236 92B2     		uxth	r2, r2
 2949 0238 8902     		lsls	r1, r1, #10
ARM GAS  C:\Users\Nathan\AppData\Local\Temp\ccuhR5Xd.s 			page 75


 2950              	.LVL333:
 485:Drivers/STM32WBxx_HAL_Driver/Src/stm32wbxx_ll_usb.c ****             pmabuffer = ep->pmaaddr0;
 2951              		.loc 1 485 13 is_stmt 0 discriminator 12 view .LVU1028
 2952 023a 89B2     		uxth	r1, r1
 2953 023c 0A43     		orrs	r2, r2, r1
 2954 023e 42F40042 		orr	r2, r2, #32768
 2955 0242 A3F80224 		strh	r2, [r3, #1026]	@ movhi
 2956 0246 01E0     		b	.L110
 2957              	.LVL334:
 2958              	.L108:
 485:Drivers/STM32WBxx_HAL_Driver/Src/stm32wbxx_ll_usb.c ****             pmabuffer = ep->pmaaddr0;
 2959              		.loc 1 485 13 discriminator 12 view .LVU1029
 2960              	.LBE92:
 2961              	.LBE94:
 485:Drivers/STM32WBxx_HAL_Driver/Src/stm32wbxx_ll_usb.c ****             pmabuffer = ep->pmaaddr0;
 2962              		.loc 1 485 13 is_stmt 1 discriminator 2 view .LVU1030
 2963 0248 012B     		cmp	r3, #1
 2964 024a 06D0     		beq	.L156
 2965              	.L110:
 485:Drivers/STM32WBxx_HAL_Driver/Src/stm32wbxx_ll_usb.c ****             pmabuffer = ep->pmaaddr0;
 2966              		.loc 1 485 13 view .LVU1031
 485:Drivers/STM32WBxx_HAL_Driver/Src/stm32wbxx_ll_usb.c ****             pmabuffer = ep->pmaaddr0;
 2967              		.loc 1 485 13 view .LVU1032
 486:Drivers/STM32WBxx_HAL_Driver/Src/stm32wbxx_ll_usb.c **** 
 2968              		.loc 1 486 13 view .LVU1033
 2969              	.LVL335:
 489:Drivers/STM32WBxx_HAL_Driver/Src/stm32wbxx_ll_usb.c ****           }
 2970              		.loc 1 489 13 view .LVU1034
 2971 024c B3B2     		uxth	r3, r6
 2972 024e 2289     		ldrh	r2, [r4, #8]
 2973 0250 6169     		ldr	r1, [r4, #20]
 2974 0252 2846     		mov	r0, r5
 2975 0254 FFF7FEFF 		bl	USB_WritePMA
 2976              	.LVL336:
 489:Drivers/STM32WBxx_HAL_Driver/Src/stm32wbxx_ll_usb.c ****           }
 2977              		.loc 1 489 13 is_stmt 0 view .LVU1035
 2978 0258 35E7     		b	.L96
 2979              	.L156:
 485:Drivers/STM32WBxx_HAL_Driver/Src/stm32wbxx_ll_usb.c ****             pmabuffer = ep->pmaaddr0;
 2980              		.loc 1 485 13 is_stmt 1 discriminator 13 view .LVU1036
 2981              	.LBB95:
 485:Drivers/STM32WBxx_HAL_Driver/Src/stm32wbxx_ll_usb.c ****             pmabuffer = ep->pmaaddr0;
 2982              		.loc 1 485 13 discriminator 13 view .LVU1037
 2983              	.LVL337:
 485:Drivers/STM32WBxx_HAL_Driver/Src/stm32wbxx_ll_usb.c ****             pmabuffer = ep->pmaaddr0;
 2984              		.loc 1 485 13 view .LVU1038
 485:Drivers/STM32WBxx_HAL_Driver/Src/stm32wbxx_ll_usb.c ****             pmabuffer = ep->pmaaddr0;
 2985              		.loc 1 485 13 view .LVU1039
 485:Drivers/STM32WBxx_HAL_Driver/Src/stm32wbxx_ll_usb.c ****             pmabuffer = ep->pmaaddr0;
 2986              		.loc 1 485 13 is_stmt 0 discriminator 13 view .LVU1040
 2987 025a B5F85030 		ldrh	r3, [r5, #80]
 2988 025e 15FA83F3 		uxtah	r3, r5, r3
 2989              	.LVL338:
 485:Drivers/STM32WBxx_HAL_Driver/Src/stm32wbxx_ll_usb.c ****             pmabuffer = ep->pmaaddr0;
 2990              		.loc 1 485 13 is_stmt 1 view .LVU1041
 485:Drivers/STM32WBxx_HAL_Driver/Src/stm32wbxx_ll_usb.c ****             pmabuffer = ep->pmaaddr0;
 2991              		.loc 1 485 13 is_stmt 0 discriminator 13 view .LVU1042
ARM GAS  C:\Users\Nathan\AppData\Local\Temp\ccuhR5Xd.s 			page 76


 2992 0262 2278     		ldrb	r2, [r4]	@ zero_extendqisi2
 2993 0264 03EBC203 		add	r3, r3, r2, lsl #3
 2994              	.LVL339:
 485:Drivers/STM32WBxx_HAL_Driver/Src/stm32wbxx_ll_usb.c ****             pmabuffer = ep->pmaaddr0;
 2995              		.loc 1 485 13 is_stmt 1 view .LVU1043
 485:Drivers/STM32WBxx_HAL_Driver/Src/stm32wbxx_ll_usb.c ****             pmabuffer = ep->pmaaddr0;
 2996              		.loc 1 485 13 is_stmt 0 discriminator 13 view .LVU1044
 2997 0268 B2B2     		uxth	r2, r6
 2998 026a A3F80224 		strh	r2, [r3, #1026]	@ movhi
 2999 026e EDE7     		b	.L110
 3000              	.LVL340:
 3001              	.L99:
 485:Drivers/STM32WBxx_HAL_Driver/Src/stm32wbxx_ll_usb.c ****             pmabuffer = ep->pmaaddr0;
 3002              		.loc 1 485 13 discriminator 13 view .LVU1045
 3003              	.LBE95:
 494:Drivers/STM32WBxx_HAL_Driver/Src/stm32wbxx_ll_usb.c ****             pmabuffer = ep->pmaaddr0;
 3004              		.loc 1 494 13 is_stmt 1 view .LVU1046
 494:Drivers/STM32WBxx_HAL_Driver/Src/stm32wbxx_ll_usb.c ****             pmabuffer = ep->pmaaddr0;
 3005              		.loc 1 494 13 view .LVU1047
